Archive member included to satisfy reference by file (symbol)

/home/rex/openrex-bsp/build-openrex/tmp/sysroots/imx6q-openrex/usr/lib/arm-poky-linux-gnueabi/5.2.0/libgcc.a(_udivsi3.o)
                              arch/arm/cpu/armv7/built-in.o (__aeabi_uidiv)
/home/rex/openrex-bsp/build-openrex/tmp/sysroots/imx6q-openrex/usr/lib/arm-poky-linux-gnueabi/5.2.0/libgcc.a(_divsi3.o)
                              common/built-in.o (__aeabi_idiv)
/home/rex/openrex-bsp/build-openrex/tmp/sysroots/imx6q-openrex/usr/lib/arm-poky-linux-gnueabi/5.2.0/libgcc.a(_lshrdi3.o)
                              fs/built-in.o (__aeabi_llsr)
/home/rex/openrex-bsp/build-openrex/tmp/sysroots/imx6q-openrex/usr/lib/arm-poky-linux-gnueabi/5.2.0/libgcc.a(_ashldi3.o)
                              drivers/mmc/built-in.o (__aeabi_llsl)
/home/rex/openrex-bsp/build-openrex/tmp/sysroots/imx6q-openrex/usr/lib/arm-poky-linux-gnueabi/5.2.0/libgcc.a(_dvmd_lnx.o)
                              /home/rex/openrex-bsp/build-openrex/tmp/sysroots/imx6q-openrex/usr/lib/arm-poky-linux-gnueabi/5.2.0/libgcc.a(_udivsi3.o) (__aeabi_idiv0)

Discarded input sections

 .data          0x0000000000000000        0x0 arch/arm/cpu/armv7/start.o
 .bss           0x0000000000000000        0x0 arch/arm/cpu/armv7/start.o
 .text.v7_outer_cache_enable
                0x0000000000000000        0x4 arch/arm/cpu/armv7/built-in.o
 .text.v7_outer_cache_disable
                0x0000000000000000        0x4 arch/arm/cpu/armv7/built-in.o
 .text.v7_outer_cache_flush_all
                0x0000000000000000        0x4 arch/arm/cpu/armv7/built-in.o
 .text.v7_outer_cache_inval_all
                0x0000000000000000        0x4 arch/arm/cpu/armv7/built-in.o
 .text.v7_outer_cache_flush_range
                0x0000000000000000        0x4 arch/arm/cpu/armv7/built-in.o
 .text.v7_outer_cache_inval_range
                0x0000000000000000        0x4 arch/arm/cpu/armv7/built-in.o
 .text.v7_arch_cp15_set_l2aux_ctrl
                0x0000000000000000        0x8 arch/arm/cpu/armv7/built-in.o
 .text.v7_arch_cp15_set_acr
                0x0000000000000000        0x8 arch/arm/cpu/armv7/built-in.o
 .text.sdelay   0x0000000000000000        0xc arch/arm/cpu/armv7/built-in.o
 .text.wait_on_value
                0x0000000000000000       0x34 arch/arm/cpu/armv7/built-in.o
 .text.enable_enet_clk
                0x0000000000000000       0x48 arch/arm/cpu/armv7/built-in.o
 .text.enable_uart_clk
                0x0000000000000000       0x4c arch/arm/cpu/armv7/built-in.o
 .text.enable_usdhc_clk
                0x0000000000000000       0x4c arch/arm/cpu/armv7/built-in.o
 .text.enable_spi_clk
                0x0000000000000000       0x44 arch/arm/cpu/armv7/built-in.o
 .text.enable_fec_anatop_clock
                0x0000000000000000       0xe4 arch/arm/cpu/armv7/built-in.o
 .text.enable_ipu_clock
                0x0000000000000000       0x58 arch/arm/cpu/armv7/built-in.o
 .data          0x0000000000000000        0x0 arch/arm/cpu/armv7/built-in.o
 .bss           0x0000000000000000        0x0 arch/arm/cpu/armv7/built-in.o
 .text          0x0000000000000000        0x0 arch/arm/imx-common/built-in.o
 .text.get_imx_reset_cause
                0x0000000000000000       0x10 arch/arm/imx-common/built-in.o
 .text.set_chipselect_size
                0x0000000000000000       0x84 arch/arm/imx-common/built-in.o
 .text.force_idle_bus
                0x0000000000000000      0x124 arch/arm/imx-common/built-in.o
 .text.setup_i2c
                0x0000000000000000       0xdc arch/arm/imx-common/built-in.o
 .text.mxs_wait_mask_set
                0x0000000000000000       0x3c arch/arm/imx-common/built-in.o
 .text.mxs_wait_mask_clr
                0x0000000000000000       0x3c arch/arm/imx-common/built-in.o
 .text.mxs_reset_block
                0x0000000000000000       0x90 arch/arm/imx-common/built-in.o
 .rodata.__func__.7053
                0x0000000000000000        0xf arch/arm/imx-common/built-in.o
 .data          0x0000000000000000        0x0 arch/arm/imx-common/built-in.o
 .bss           0x0000000000000000        0x0 arch/arm/imx-common/built-in.o
 .text.enable_caches
                0x0000000000000000        0xc arch/arm/lib/built-in.o
 .text.invalidate_dcache_range
                0x0000000000000000        0x4 arch/arm/lib/built-in.o
 .text.flush_dcache_range
                0x0000000000000000        0x4 arch/arm/lib/built-in.o
 .text.flush_dcache_all
                0x0000000000000000        0xc arch/arm/lib/built-in.o
 .text.arm_init_before_mmu
                0x0000000000000000        0x4 arch/arm/lib/built-in.o
 .text.mmu_page_table_flush
                0x0000000000000000        0x4 arch/arm/lib/built-in.o
 .rodata.pl310  0x0000000000000000        0x4 arch/arm/lib/built-in.o
 .data          0x0000000000000000        0x0 arch/arm/lib/built-in.o
 .__secure_start
                0x0000000000000000        0x0 arch/arm/lib/built-in.o
 .__secure_end  0x0000000000000000        0x0 arch/arm/lib/built-in.o
 .bss           0x0000000000000000        0x0 arch/arm/lib/built-in.o
 .text          0x0000000000000000        0x0 board/fedevel/mx6openrex/built-in.o
 .text.overwrite_console
                0x0000000000000000        0x8 board/fedevel/mx6openrex/built-in.o
 .rodata.di0_pads
                0x0000000000000000       0x18 board/fedevel/mx6openrex/built-in.o
 .data          0x0000000000000000        0x0 board/fedevel/mx6openrex/built-in.o
 .bss           0x0000000000000000        0x0 board/fedevel/mx6openrex/built-in.o
 .text          0x0000000000000000        0x0 common/built-in.o
 .text.hash_progressive_lookup_algo
                0x0000000000000000       0x3c common/built-in.o
 .text.hash_parse_string
                0x0000000000000000       0x68 common/built-in.o
 .text.hash_show
                0x0000000000000000       0x54 common/built-in.o
 .text.hash_block
                0x0000000000000000       0x6c common/built-in.o
 .text.unset_local_var
                0x0000000000000000       0xa0 common/built-in.o
 .text.arch_cpu_init
                0x0000000000000000        0x8 common/built-in.o
 .text.red_led_off
                0x0000000000000000        0x4 common/built-in.o
 .text.green_led_on
                0x0000000000000000        0x4 common/built-in.o
 .text.green_led_off
                0x0000000000000000        0x4 common/built-in.o
 .text.yellow_led_on
                0x0000000000000000        0x4 common/built-in.o
 .text.yellow_led_off
                0x0000000000000000        0x4 common/built-in.o
 .text.blue_led_on
                0x0000000000000000        0x4 common/built-in.o
 .text.blue_led_off
                0x0000000000000000        0x4 common/built-in.o
 .text.arch_reserve_stacks
                0x0000000000000000        0x8 common/built-in.o
 .text.arch_setup_gd
                0x0000000000000000        0x8 common/built-in.o
 .text.board_init_f_mem
                0x0000000000000000       0x34 common/built-in.o
 .text.power_init_board
                0x0000000000000000        0x8 common/built-in.o
 .text.board_flash_wp_on
                0x0000000000000000        0x8 common/built-in.o
 .text.fixup_cpu
                0x0000000000000000        0x8 common/built-in.o
 .text.checkboard
                0x0000000000000000        0x8 common/built-in.o
 .text.bootz_setup
                0x0000000000000000       0x18 common/built-in.o
 .text.arch_preboot_os
                0x0000000000000000        0x4 common/built-in.o
 .text.env_flags_parse_varaccess_from_binflags
                0x0000000000000000       0x28 common/built-in.o
 .text.invalidate_icache_all
                0x0000000000000000        0xc common/built-in.o
 .text.flush_dcache_all
                0x0000000000000000        0xc common/built-in.o
 .text.of_bus_default_map
                0x0000000000000000       0xdc common/built-in.o
 .text.fdt_read_prop
                0x0000000000000000       0x64 common/built-in.o
 .text.of_bus_default_count_cells
                0x0000000000000000       0x58 common/built-in.o
 .text.of_bus_default_translate
                0x0000000000000000       0xa0 common/built-in.o
 .text.fdt_getprop_u32_default_node
                0x0000000000000000       0x40 common/built-in.o
 .text.fdt_getprop_u32_default
                0x0000000000000000       0x3c common/built-in.o
 .text.do_fixup_by_path_u32
                0x0000000000000000       0x2c common/built-in.o
 .text.do_fixup_by_prop
                0x0000000000000000       0x9c common/built-in.o
 .text.do_fixup_by_prop_u32
                0x0000000000000000       0x38 common/built-in.o
 .text.do_fixup_by_compat
                0x0000000000000000       0x8c common/built-in.o
 .text.do_fixup_by_compat_u32
                0x0000000000000000       0x2c common/built-in.o
 .text.fdt_increase_size
                0x0000000000000000       0x14 common/built-in.o
 .text.fdt_del_node_and_alias
                0x0000000000000000       0x44 common/built-in.o
 .text.fdt_translate_address
                0x0000000000000000      0x29c common/built-in.o
 .text.fdt_node_offset_by_compat_reg
                0x0000000000000000       0x88 common/built-in.o
 .text.fdt_alloc_phandle
                0x0000000000000000       0x58 common/built-in.o
 .text.fdt_set_phandle
                0x0000000000000000       0x60 common/built-in.o
 .text.fdt_create_phandle
                0x0000000000000000       0x64 common/built-in.o
 .text.fdt_set_node_status
                0x0000000000000000       0xf4 common/built-in.o
 .text.fdt_set_status_by_alias
                0x0000000000000000       0x2c common/built-in.o
 .text.fdt_verify_alias_address
                0x0000000000000000       0xd0 common/built-in.o
 .text.fdt_get_base_address
                0x0000000000000000       0x54 common/built-in.o
 .text.fdt_read_range
                0x0000000000000000      0x13c common/built-in.o
 .text.fdt_setup_simplefb_node
                0x0000000000000000      0x1fc common/built-in.o
 .text.fdt_fixup_display
                0x0000000000000000       0xd4 common/built-in.o
 .text.legacy_miiphy_read
                0x0000000000000000       0x34 common/built-in.o
 .text.legacy_miiphy_write
                0x0000000000000000       0x28 common/built-in.o
 .text.miiphy_register
                0x0000000000000000      0x10c common/built-in.o
 .text.usb_detect_change
                0x0000000000000000       0x6c common/built-in.o
 .text.usb_submit_int_msg
                0x0000000000000000        0x4 common/built-in.o
 .text.usb_set_protocol
                0x0000000000000000       0x4c common/built-in.o
 .text.usb_set_idle
                0x0000000000000000       0x54 common/built-in.o
 .text.usb_get_report
                0x0000000000000000       0x5c common/built-in.o
 .text.usb_get_class_descriptor
                0x0000000000000000       0x5c common/built-in.o
 .text.usb_stor_reset
                0x0000000000000000       0x14 common/built-in.o
 .text.splash_screen_prepare
                0x0000000000000000        0x8 common/built-in.o
 .text.bounce_buffer_start
                0x0000000000000000       0x88 common/built-in.o
 .text.bounce_buffer_stop
                0x0000000000000000       0x54 common/built-in.o
 .text.serial_printf
                0x0000000000000000       0x40 common/built-in.o
 .text.fputc    0x0000000000000000       0x1c common/built-in.o
 .text.fputs    0x0000000000000000       0x1c common/built-in.o
 .text.fprintf  0x0000000000000000       0x48 common/built-in.o
 .text.disable_ctrlc
                0x0000000000000000       0x18 common/built-in.o
 .text.valloc   0x0000000000000000        0xc common/built-in.o
 .text.pvalloc  0x0000000000000000       0x18 common/built-in.o
 .text.cfree    0x0000000000000000        0x4 common/built-in.o
 .text.malloc_usable_size
                0x0000000000000000       0x3c common/built-in.o
 .text.mallopt  0x0000000000000000       0x54 common/built-in.o
 .text.memalign_simple
                0x0000000000000000       0x44 common/built-in.o
 .text.genimg_get_type_short_name
                0x0000000000000000       0x28 common/built-in.o
 .text.get_table_entry_id
                0x0000000000000000       0x4c common/built-in.o
 .text.genimg_get_os_id
                0x0000000000000000       0x18 common/built-in.o
 .text.genimg_get_arch_id
                0x0000000000000000       0x18 common/built-in.o
 .text.genimg_get_type_id
                0x0000000000000000       0x18 common/built-in.o
 .text.genimg_get_comp_id
                0x0000000000000000       0x18 common/built-in.o
 .text.genimg_get_kernel_addr
                0x0000000000000000       0x24 common/built-in.o
 .text.arch_fixup_fdt
                0x0000000000000000        0x8 common/built-in.o
 .text.get_ram_size
                0x0000000000000000       0xe0 common/built-in.o
 .text.stdio_init
                0x0000000000000000       0x14 common/built-in.o
 .text.cli_simple_parse_line
                0x0000000000000000       0x8c common/built-in.o
 .text.cli_simple_process_macros
                0x0000000000000000      0x20c common/built-in.o
 .text.cli_simple_run_command
                0x0000000000000000      0x150 common/built-in.o
 .text.cli_simple_loop
                0x0000000000000000       0x78 common/built-in.o
 .text.cli_simple_run_command_list
                0x0000000000000000       0x70 common/built-in.o
 .text.run_command_repeatable
                0x0000000000000000       0x1c common/built-in.o
 .rodata.__FUNCTION__.7960
                0x0000000000000000       0x17 common/built-in.o
 .rodata.__FUNCTION__.8843
                0x0000000000000000       0x10 common/built-in.o
 .data          0x0000000000000000        0x0 common/built-in.o
 .data.of_busses
                0x0000000000000000       0x14 common/built-in.o
 .bss           0x0000000000000000        0x0 common/built-in.o
 .bss.save_addr
                0x0000000000000000        0x4 common/built-in.o
 .bss.save_size
                0x0000000000000000        0x4 common/built-in.o
 .bss.lastcommand.6836
                0x0000000000000000      0x201 common/built-in.o
 .text          0x0000000000000000        0x0 disk/built-in.o
 .text.get_dev  0x0000000000000000        0x8 disk/built-in.o
 .data          0x0000000000000000        0x0 disk/built-in.o
 .bss           0x0000000000000000        0x0 disk/built-in.o
 .text          0x0000000000000000        0x0 drivers/built-in.o
 .text._device_find_global_by_of_offset
                0x0000000000000000       0x50 drivers/built-in.o
 .text.dev_get_parent_platdata
                0x0000000000000000       0x34 drivers/built-in.o
 .text.dev_get_uclass_platdata
                0x0000000000000000       0x34 drivers/built-in.o
 .text.dev_get_uclass_priv
                0x0000000000000000       0x34 drivers/built-in.o
 .text.dev_get_parentdata
                0x0000000000000000       0x34 drivers/built-in.o
 .text.device_get_child
                0x0000000000000000       0x58 drivers/built-in.o
 .text.device_find_child_by_seq
                0x0000000000000000       0x64 drivers/built-in.o
 .text.device_get_child_by_seq
                0x0000000000000000       0x64 drivers/built-in.o
 .text.device_find_child_by_of_offset
                0x0000000000000000       0x44 drivers/built-in.o
 .text.device_get_child_by_of_offset
                0x0000000000000000       0x3c drivers/built-in.o
 .text.device_get_global_by_of_offset
                0x0000000000000000       0x40 drivers/built-in.o
 .text.device_find_first_child
                0x0000000000000000       0x1c drivers/built-in.o
 .text.device_find_next_child
                0x0000000000000000       0x28 drivers/built-in.o
 .text.dev_get_parent
                0x0000000000000000        0x8 drivers/built-in.o
 .text.dev_get_driver_data
                0x0000000000000000        0x8 drivers/built-in.o
 .text.dev_get_driver_ops
                0x0000000000000000       0x10 drivers/built-in.o
 .text.device_get_uclass_id
                0x0000000000000000       0x10 drivers/built-in.o
 .text.dev_get_uclass_name
                0x0000000000000000       0x14 drivers/built-in.o
 .text.dev_get_addr
                0x0000000000000000        0x8 drivers/built-in.o
 .text.device_has_children
                0x0000000000000000       0x14 drivers/built-in.o
 .text.device_has_active_children
                0x0000000000000000       0x3c drivers/built-in.o
 .text.device_is_last_sibling
                0x0000000000000000       0x24 drivers/built-in.o
 .text.device_set_name
                0x0000000000000000       0x24 drivers/built-in.o
 .text.device_bind_driver_to_node
                0x0000000000000000       0x48 drivers/built-in.o
 .text.device_bind_driver
                0x0000000000000000       0x18 drivers/built-in.o
 .text.dm_uninit
                0x0000000000000000       0x1c drivers/built-in.o
 .text.uclass_destroy
                0x0000000000000000       0x98 drivers/built-in.o
 .text.uclass_find_first_device
                0x0000000000000000       0x3c drivers/built-in.o
 .text.uclass_find_next_device
                0x0000000000000000       0x2c drivers/built-in.o
 .text.uclass_find_device_by_name
                0x0000000000000000       0x8c drivers/built-in.o
 .text.uclass_get_device_by_name
                0x0000000000000000       0x30 drivers/built-in.o
 .text.uclass_get_device_by_seq
                0x0000000000000000       0x54 drivers/built-in.o
 .text.uclass_get_device_by_of_offset
                0x0000000000000000       0x80 drivers/built-in.o
 .text.uclass_get_device_by_phandle
                0x0000000000000000       0xac drivers/built-in.o
 .text.uclass_first_device
                0x0000000000000000       0x38 drivers/built-in.o
 .text.uclass_next_device
                0x0000000000000000       0x40 drivers/built-in.o
 .text.dm_dbg   0x0000000000000000       0x28 drivers/built-in.o
 .text.list_count_items
                0x0000000000000000       0x20 drivers/built-in.o
 .text.device_unbind
                0x0000000000000000       0xf4 drivers/built-in.o
 .text.device_unbind_children
                0x0000000000000000       0x5c drivers/built-in.o
 .text.dwc_ahsata_rw_ncq_cmd
                0x0000000000000000       0xf8 drivers/built-in.o
 .text.sata_port_status
                0x0000000000000000       0x44 drivers/built-in.o
 .text.ata_dev_classify
                0x0000000000000000       0x4c drivers/built-in.o
 .text.ata_dump_id
                0x0000000000000000      0x128 drivers/built-in.o
 .text.dfu_usb_get_reset
                0x0000000000000000        0x8 drivers/built-in.o
 .text.dfu_get_alt
                0x0000000000000000       0xa8 drivers/built-in.o
 .text.dfu_write_from_mem_addr
                0x0000000000000000       0xd0 drivers/built-in.o
 .text.input_tstc
                0x0000000000000000       0x48 drivers/built-in.o
 .text.input_getc
                0x0000000000000000       0x58 drivers/built-in.o
 .text.input_send_keycodes
                0x0000000000000000      0x3ac drivers/built-in.o
 .text.input_add_table
                0x0000000000000000       0x40 drivers/built-in.o
 .text.input_set_delays
                0x0000000000000000        0xc drivers/built-in.o
 .text.input_init
                0x0000000000000000       0xdc drivers/built-in.o
 .text.input_stdio_register
                0x0000000000000000       0x54 drivers/built-in.o
 .rodata.__func__.8584
                0x0000000000000000       0x13 drivers/built-in.o
 .rodata.__func__.8572
                0x0000000000000000       0x18 drivers/built-in.o
 .rodata.__func__.8568
                0x0000000000000000       0x18 drivers/built-in.o
 .rodata.__func__.8580
                0x0000000000000000       0x14 drivers/built-in.o
 .rodata.__func__.9891
                0x0000000000000000       0x18 drivers/built-in.o
 .rodata.kbd_to_ansi364
                0x0000000000000000       0x20 drivers/built-in.o
 .rodata.kbd_plain_xlate
                0x0000000000000000       0x63 drivers/built-in.o
 .rodata.CSWTCH.28
                0x0000000000000000        0xd drivers/built-in.o
 .data          0x0000000000000000        0x0 drivers/built-in.o
 .data.kbd_ctrl_xlate
                0x0000000000000000       0x63 drivers/built-in.o
 .data.kbd_shift_xlate
                0x0000000000000000       0x63 drivers/built-in.o
 .bss           0x0000000000000000        0x0 drivers/built-in.o
 .text          0x0000000000000000        0x0 drivers/gpio/built-in.o
 .data          0x0000000000000000        0x0 drivers/gpio/built-in.o
 .bss           0x0000000000000000        0x0 drivers/gpio/built-in.o
 .text          0x0000000000000000        0x0 drivers/i2c/built-in.o
 .text.i2c_reloc_fixup
                0x0000000000000000        0x4 drivers/i2c/built-in.o
 .text.i2c_init_board
                0x0000000000000000        0x4 drivers/i2c/built-in.o
 .text.i2c_reg_read
                0x0000000000000000       0x20 drivers/i2c/built-in.o
 .text.i2c_reg_write
                0x0000000000000000       0x20 drivers/i2c/built-in.o
 .text.i2c_get_base
                0x0000000000000000       0x18 drivers/i2c/built-in.o
 .text.__enable_i2c_clk
                0x0000000000000000        0x8 drivers/i2c/built-in.o
 .data          0x0000000000000000        0x0 drivers/i2c/built-in.o
 .bss           0x0000000000000000        0x0 drivers/i2c/built-in.o
 .text          0x0000000000000000        0x0 drivers/mmc/built-in.o
 .text.fdt_fixup_esdhc
                0x0000000000000000       0x5c drivers/mmc/built-in.o
 .text.board_mmc_getcd
                0x0000000000000000        0x8 drivers/mmc/built-in.o
 .text.mmc_register
                0x0000000000000000       0x20 drivers/mmc/built-in.o
 .text.mmc_destroy
                0x0000000000000000        0x4 drivers/mmc/built-in.o
 .text.cpu_mmc_init
                0x0000000000000000        0x8 drivers/mmc/built-in.o
 .text.board_mmc_init
                0x0000000000000000        0x8 drivers/mmc/built-in.o
 .text.mmc_set_preinit
                0x0000000000000000        0x8 drivers/mmc/built-in.o
 .rodata.__func__.8904
                0x0000000000000000        0xd drivers/mmc/built-in.o
 .data          0x0000000000000000        0x0 drivers/mmc/built-in.o
 .bss           0x0000000000000000        0x0 drivers/mmc/built-in.o
 .text          0x0000000000000000        0x0 drivers/mtd/built-in.o
 .text.idr_remove
                0x0000000000000000       0x14 drivers/mtd/built-in.o
 .text.idr_find
                0x0000000000000000       0x14 drivers/mtd/built-in.o
 .text.idr_get_next
                0x0000000000000000       0x44 drivers/mtd/built-in.o
 .text.idr_alloc
                0x0000000000000000       0x3c drivers/mtd/built-in.o
 .text.__mtd_next_device
                0x0000000000000000       0x20 drivers/mtd/built-in.o
 .text.del_mtd_device
                0x0000000000000000       0x74 drivers/mtd/built-in.o
 .text.__get_mtd_device
                0x0000000000000000       0x38 drivers/mtd/built-in.o
 .text.get_mtd_device
                0x0000000000000000       0x8c drivers/mtd/built-in.o
 .text.get_mtd_device_nm
                0x0000000000000000       0x58 drivers/mtd/built-in.o
 .text.__put_mtd_device
                0x0000000000000000       0x4c drivers/mtd/built-in.o
 .text.put_mtd_device
                0x0000000000000000        0x4 drivers/mtd/built-in.o
 .text.mtd_erase
                0x0000000000000000       0x90 drivers/mtd/built-in.o
 .text.mtd_get_unmapped_area
                0x0000000000000000       0x60 drivers/mtd/built-in.o
 .text.mtd_read
                0x0000000000000000       0xa4 drivers/mtd/built-in.o
 .text.mtd_write
                0x0000000000000000       0x9c drivers/mtd/built-in.o
 .text.mtd_panic_write
                0x0000000000000000       0xa0 drivers/mtd/built-in.o
 .text.mtd_read_oob
                0x0000000000000000       0x60 drivers/mtd/built-in.o
 .text.mtd_get_fact_prot_info
                0x0000000000000000       0x34 drivers/mtd/built-in.o
 .text.mtd_read_fact_prot_reg
                0x0000000000000000       0x48 drivers/mtd/built-in.o
 .text.mtd_get_user_prot_info
                0x0000000000000000       0x34 drivers/mtd/built-in.o
 .text.mtd_read_user_prot_reg
                0x0000000000000000       0x48 drivers/mtd/built-in.o
 .text.mtd_write_user_prot_reg
                0x0000000000000000       0x64 drivers/mtd/built-in.o
 .text.mtd_lock_user_prot_reg
                0x0000000000000000       0x38 drivers/mtd/built-in.o
 .text.mtd_lock
                0x0000000000000000       0x74 drivers/mtd/built-in.o
 .text.mtd_unlock
                0x0000000000000000       0x74 drivers/mtd/built-in.o
 .text.add_mtd_device
                0x0000000000000000      0x1d8 drivers/mtd/built-in.o
 .text.mtd_is_locked
                0x0000000000000000       0x74 drivers/mtd/built-in.o
 .text.mtd_block_isreserved
                0x0000000000000000       0x50 drivers/mtd/built-in.o
 .text.mtd_block_isbad
                0x0000000000000000       0x50 drivers/mtd/built-in.o
 .text.mtd_block_markbad
                0x0000000000000000       0x64 drivers/mtd/built-in.o
 .data          0x0000000000000000        0x0 drivers/mtd/built-in.o
 .bss           0x0000000000000000        0x0 drivers/mtd/built-in.o
 .bss.mtd_table
                0x0000000000000000       0x80 drivers/mtd/built-in.o
 .bss.mtd_idr   0x0000000000000000      0x200 drivers/mtd/built-in.o
 .text          0x0000000000000000        0x0 drivers/mtd/spi/built-in.o
 .text.spi_flash_cmd_lock_ops
                0x0000000000000000        0x4 drivers/mtd/spi/built-in.o
 .text.spi_flash_cmd_unlock_ops
                0x0000000000000000        0x4 drivers/mtd/spi/built-in.o
 .text.spi_flash_cmd_is_locked_ops
                0x0000000000000000       0x1c drivers/mtd/spi/built-in.o
 .text.spi_flash_cmd_read_status
                0x0000000000000000       0x30 drivers/mtd/spi/built-in.o
 .data          0x0000000000000000        0x0 drivers/mtd/spi/built-in.o
 .bss           0x0000000000000000        0x0 drivers/mtd/spi/built-in.o
 .text          0x0000000000000000        0x0 drivers/net/built-in.o
 .data          0x0000000000000000        0x0 drivers/net/built-in.o
 .bss           0x0000000000000000        0x0 drivers/net/built-in.o
 .text          0x0000000000000000        0x0 drivers/net/phy/built-in.o
 .text.miiphy_reset
                0x0000000000000000       0x24 drivers/net/phy/built-in.o
 .text.phy_connect
                0x0000000000000000       0x50 drivers/net/phy/built-in.o
 .text.board_phy_config
                0x0000000000000000       0x1c drivers/net/phy/built-in.o
 .text.phy_shutdown
                0x0000000000000000       0x28 drivers/net/phy/built-in.o
 .text.phy_get_interface_by_name
                0x0000000000000000       0x44 drivers/net/phy/built-in.o
 .rodata.phy_interface_strings
                0x0000000000000000       0x38 drivers/net/phy/built-in.o
 .data          0x0000000000000000        0x0 drivers/net/phy/built-in.o
 .bss           0x0000000000000000        0x0 drivers/net/phy/built-in.o
 .text          0x0000000000000000        0x0 drivers/serial/built-in.o
 .text.serial_reinit_all
                0x0000000000000000       0x2c drivers/serial/built-in.o
 .data          0x0000000000000000        0x0 drivers/serial/built-in.o
 .bss           0x0000000000000000        0x0 drivers/serial/built-in.o
 .text          0x0000000000000000        0x0 drivers/spi/built-in.o
 .text.spi_set_wordlen
                0x0000000000000000       0x30 drivers/spi/built-in.o
 .text.board_spi_cs_gpio
                0x0000000000000000        0x8 drivers/spi/built-in.o
 .text.get_cspi_div
                0x0000000000000000       0x24 drivers/spi/built-in.o
 .text.spi_init
                0x0000000000000000        0x4 drivers/spi/built-in.o
 .data          0x0000000000000000        0x0 drivers/spi/built-in.o
 .bss           0x0000000000000000        0x0 drivers/spi/built-in.o
 .text          0x0000000000000000        0x0 drivers/usb/eth/built-in.o
 .text.is_eth_dev_on_usb_host
                0x0000000000000000       0x60 drivers/usb/eth/built-in.o
 .data          0x0000000000000000        0x0 drivers/usb/eth/built-in.o
 .bss           0x0000000000000000        0x0 drivers/usb/eth/built-in.o
 .text          0x0000000000000000        0x0 drivers/usb/gadget/built-in.o
 .text.usb_gadget_config_buf
                0x0000000000000000       0x90 drivers/usb/gadget/built-in.o
 .text.usb_function_deactivate
                0x0000000000000000       0x58 drivers/usb/gadget/built-in.o
 .text.usb_function_activate
                0x0000000000000000       0x58 drivers/usb/gadget/built-in.o
 .text.usb_string_ids_tab
                0x0000000000000000       0x40 drivers/usb/gadget/built-in.o
 .text.usb_string_ids_n
                0x0000000000000000       0x2c drivers/usb/gadget/built-in.o
 .text.board_usb_init
                0x0000000000000000        0x8 drivers/usb/gadget/built-in.o
 .text.board_usb_cleanup
                0x0000000000000000        0x8 drivers/usb/gadget/built-in.o
 .text.set_bit  0x0000000000000000       0x1c drivers/usb/gadget/built-in.o
 .text.clear_bit
                0x0000000000000000       0x1c drivers/usb/gadget/built-in.o
 .data          0x0000000000000000        0x0 drivers/usb/gadget/built-in.o
 .bss           0x0000000000000000        0x0 drivers/usb/gadget/built-in.o
 .text          0x0000000000000000        0x0 drivers/usb/host/built-in.o
 .text.ehci_set_controller_priv
                0x0000000000000000       0xa0 drivers/usb/host/built-in.o
 .text.ehci_get_controller_priv
                0x0000000000000000       0x14 drivers/usb/host/built-in.o
 .text.create_int_queue
                0x0000000000000000        0x4 drivers/usb/host/built-in.o
 .text.poll_int_queue
                0x0000000000000000        0x4 drivers/usb/host/built-in.o
 .text.destroy_int_queue
                0x0000000000000000        0x4 drivers/usb/host/built-in.o
 .text.board_ehci_hcd_init
                0x0000000000000000        0x8 drivers/usb/host/built-in.o
 .text.board_ehci_power
                0x0000000000000000        0x8 drivers/usb/host/built-in.o
 .data          0x0000000000000000        0x0 drivers/usb/host/built-in.o
 .bss           0x0000000000000000        0x0 drivers/usb/host/built-in.o
 .text          0x0000000000000000        0x0 fs/built-in.o
 .text.fs_uuid  0x0000000000000000       0x28 fs/built-in.o
 .text.do_fs_uuid
                0x0000000000000000       0x8c fs/built-in.o
 .text.print_revoke_blks
                0x0000000000000000       0x54 fs/built-in.o
 .text.fat_register_device
                0x0000000000000000       0x88 fs/built-in.o
 .text.file_fat_read
                0x0000000000000000       0x38 fs/built-in.o
 .text.file_getfsname
                0x0000000000000000       0x14 fs/built-in.o
 .text.file_cd  0x0000000000000000      0x1bc fs/built-in.o
 .text.file_detectfs
                0x0000000000000000       0x40 fs/built-in.o
 .text.file_ls  0x0000000000000000       0x94 fs/built-in.o
 .text.file_read
                0x0000000000000000       0xa4 fs/built-in.o
 .rodata.filesystems
                0x0000000000000000       0x18 fs/built-in.o
 .data          0x0000000000000000        0x0 fs/built-in.o
 .data.file_cwd
                0x0000000000000000      0x200 fs/built-in.o
 .data.current_filesystem
                0x0000000000000000        0x4 fs/built-in.o
 .bss           0x0000000000000000        0x0 fs/built-in.o
 .bss.ext4fs_symlinknest
                0x0000000000000000        0x4 fs/built-in.o
 .text          0x0000000000000000        0x0 lib/built-in.o
 .text.inflateInit_
                0x0000000000000000       0x10 lib/built-in.o
 .text.fdt_first_subnode
                0x0000000000000000       0x34 lib/built-in.o
 .text.fdt_next_subnode
                0x0000000000000000       0x50 lib/built-in.o
 .text.fdt_getprop_by_offset
                0x0000000000000000       0x48 lib/built-in.o
 .text.fdt_get_phandle
                0x0000000000000000       0x70 lib/built-in.o
 .text.fdt_get_alias
                0x0000000000000000       0x28 lib/built-in.o
 .text.fdt_get_path
                0x0000000000000000      0x134 lib/built-in.o
 .text.fdt_parent_offset
                0x0000000000000000       0x30 lib/built-in.o
 .text.fdt_node_offset_by_prop_value
                0x0000000000000000       0x90 lib/built-in.o
 .text.fdt_node_offset_by_phandle
                0x0000000000000000       0x74 lib/built-in.o
 .text.fdt_stringlist_contains
                0x0000000000000000       0x7c lib/built-in.o
 .text.fdt_count_strings
                0x0000000000000000       0x58 lib/built-in.o
 .text.fdt_find_string
                0x0000000000000000       0x8c lib/built-in.o
 .text.fdt_get_string_index
                0x0000000000000000       0x64 lib/built-in.o
 .text.fdt_get_string
                0x0000000000000000       0x18 lib/built-in.o
 .text.fdt_node_check_compatible
                0x0000000000000000       0x40 lib/built-in.o
 .text.fdt_node_offset_by_compatible
                0x0000000000000000       0x6c lib/built-in.o
 .text.fdt_set_name
                0x0000000000000000       0x88 lib/built-in.o
 .text.fdt_appendprop
                0x0000000000000000       0xd8 lib/built-in.o
 .text.fdt_pack
                0x0000000000000000       0x5c lib/built-in.o
 .text.fdt_remove_unused_strings
                0x0000000000000000       0xb0 lib/built-in.o
 .text._fdt_sw_check_header
                0x0000000000000000       0x1c lib/built-in.o
 .text._fdt_grab_space
                0x0000000000000000       0x50 lib/built-in.o
 .text.fdt_create
                0x0000000000000000       0x64 lib/built-in.o
 .text.fdt_resize
                0x0000000000000000       0xb4 lib/built-in.o
 .text.fdt_add_reservemap_entry
                0x0000000000000000       0x90 lib/built-in.o
 .text.fdt_finish_reservemap
                0x0000000000000000       0x1c lib/built-in.o
 .text.fdt_begin_node
                0x0000000000000000       0x68 lib/built-in.o
 .text.fdt_end_node
                0x0000000000000000       0x40 lib/built-in.o
 .text.fdt_property
                0x0000000000000000      0x114 lib/built-in.o
 .text.fdt_finish
                0x0000000000000000      0x100 lib/built-in.o
 .text.fdt_setprop_inplace
                0x0000000000000000       0x44 lib/built-in.o
 .text.fdt_nop_property
                0x0000000000000000       0x40 lib/built-in.o
 .text.fdt_nop_node
                0x0000000000000000       0x50 lib/built-in.o
 .text.fdt_find_regions
                0x0000000000000000      0x3a0 lib/built-in.o
 .text.fdt_create_empty_tree
                0x0000000000000000       0x74 lib/built-in.o
 .text.fdt_add_region
                0x0000000000000000       0x98 lib/built-in.o
 .text.fdt_add_alias_regions
                0x0000000000000000      0x188 lib/built-in.o
 .text.fdt_next_region
                0x0000000000000000      0x52c lib/built-in.o
 .text.fdt_first_region
                0x0000000000000000       0x48 lib/built-in.o
 .text.crc7     0x0000000000000000       0x24 lib/built-in.o
 .text.crc8     0x0000000000000000       0x40 lib/built-in.o
 .text.gzwrite_progress_init
                0x0000000000000000        0x8 lib/built-in.o
 .text.gzwrite_progress
                0x0000000000000000       0x24 lib/built-in.o
 .text.gzwrite_progress_finish
                0x0000000000000000       0x50 lib/built-in.o
 .text.gzwrite  0x0000000000000000      0x494 lib/built-in.o
 .text.lmb_dump_all
                0x0000000000000000        0x4 lib/built-in.o
 .text.lmb_is_reserved
                0x0000000000000000       0x5c lib/built-in.o
 .text.arch_lmb_reserve
                0x0000000000000000        0x4 lib/built-in.o
 .text.ldiv     0x0000000000000000       0x50 lib/built-in.o
 .text.rc4_encode
                0x0000000000000000       0xec lib/built-in.o
 .text.strmhz   0x0000000000000000       0x64 lib/built-in.o
 .text.merge    0x0000000000000000       0x68 lib/built-in.o
 .text.list_sort
                0x0000000000000000      0x194 lib/built-in.o
 .text.print_freq
                0x0000000000000000      0x1a8 lib/built-in.o
 .text.copy_from_user
                0x0000000000000000       0x10 lib/built-in.o
 .text.kmalloc  0x0000000000000000       0x38 lib/built-in.o
 .text.get_mem  0x0000000000000000       0x1c lib/built-in.o
 .text.kmem_cache_alloc
                0x0000000000000000        0xc lib/built-in.o
 .text.strncasecmp
                0x0000000000000000       0x8c lib/built-in.o
 .text.strcasecmp
                0x0000000000000000        0x8 lib/built-in.o
 .text.strswab  0x0000000000000000       0x48 lib/built-in.o
 .text.bcopy    0x0000000000000000       0x24 lib/built-in.o
 .text.memscan  0x0000000000000000       0x2c lib/built-in.o
 .text.memchr_inv
                0x0000000000000000      0x140 lib/built-in.o
 .text.timer_init
                0x0000000000000000        0x8 lib/built-in.o
 .text.timer_get_us
                0x0000000000000000       0x24 lib/built-in.o
 .text.trailing_strtoln
                0x0000000000000000       0x60 lib/built-in.o
 .text.trailing_strtol
                0x0000000000000000        0x8 lib/built-in.o
 .text.panic_str
                0x0000000000000000        0xc lib/built-in.o
 .text.__assert_fail
                0x0000000000000000       0x14 lib/built-in.o
 .text.print_grouped_ull
                0x0000000000000000       0x88 lib/built-in.o
 .text.str2long
                0x0000000000000000       0x40 lib/built-in.o
 .rodata.z_errmsg
                0x0000000000000000       0x28 lib/built-in.o
 .rodata.crc7_syndrome_table
                0x0000000000000000      0x100 lib/built-in.o
 .rodata.__func__.6992
                0x0000000000000000        0x8 lib/built-in.o
 .rodata.names.6885
                0x0000000000000000        0x3 lib/built-in.o
 .data          0x0000000000000000        0x0 lib/built-in.o
 .data.cur      0x0000000000000000        0x4 lib/built-in.o
 .data.current  0x0000000000000000        0x4 lib/built-in.o
 .bss           0x0000000000000000        0x0 lib/built-in.o
 .text          0x0000000000000000        0x0 net/built-in.o
 .text.add_ip_checksums
                0x0000000000000000       0x3c net/built-in.o
 .text.eth_is_active
                0x0000000000000000       0x18 net/built-in.o
 .text.net_get_udp_handler
                0x0000000000000000       0x10 net/built-in.o
 .text.net_set_arp_handler
                0x0000000000000000       0x20 net/built-in.o
 .text.random_port
                0x0000000000000000       0x18 net/built-in.o
 .text.vlan_to_string
                0x0000000000000000       0x44 net/built-in.o
 .text.getenv_vlan
                0x0000000000000000       0x10 net/built-in.o
 .data          0x0000000000000000        0x0 net/built-in.o
 .data.tftp_timeout_ms
                0x0000000000000000        0x4 net/built-in.o
 .bss           0x0000000000000000        0x0 net/built-in.o
 .bss.net_busy_flag
                0x0000000000000000        0x4 net/built-in.o
 .text          0x0000000000000000        0x0 test/dm/built-in.o
 .data          0x0000000000000000        0x0 test/dm/built-in.o
 .bss           0x0000000000000000        0x0 test/dm/built-in.o
 .text          0x0000000000000000        0x0 arch/arm/lib/eabi_compat.o
 .data          0x0000000000000000        0x0 arch/arm/lib/eabi_compat.o
 .bss           0x0000000000000000        0x0 arch/arm/lib/eabi_compat.o
 .text.__aeabi_unwind_cpp_pr0
                0x0000000000000000        0x4 arch/arm/lib/eabi_compat.o
 .text.__aeabi_unwind_cpp_pr1
                0x0000000000000000        0x4 arch/arm/lib/eabi_compat.o
 .text.__aeabi_memcpy
                0x0000000000000000        0x4 arch/arm/lib/eabi_compat.o
 .text.__aeabi_memset
                0x0000000000000000       0x10 arch/arm/lib/eabi_compat.o
 .data          0x0000000000000000        0x0 /home/rex/openrex-bsp/build-openrex/tmp/sysroots/imx6q-openrex/usr/lib/arm-poky-linux-gnueabi/5.2.0/libgcc.a(_udivsi3.o)
 .bss           0x0000000000000000        0x0 /home/rex/openrex-bsp/build-openrex/tmp/sysroots/imx6q-openrex/usr/lib/arm-poky-linux-gnueabi/5.2.0/libgcc.a(_udivsi3.o)
 .data          0x0000000000000000        0x0 /home/rex/openrex-bsp/build-openrex/tmp/sysroots/imx6q-openrex/usr/lib/arm-poky-linux-gnueabi/5.2.0/libgcc.a(_divsi3.o)
 .bss           0x0000000000000000        0x0 /home/rex/openrex-bsp/build-openrex/tmp/sysroots/imx6q-openrex/usr/lib/arm-poky-linux-gnueabi/5.2.0/libgcc.a(_divsi3.o)
 .data          0x0000000000000000        0x0 /home/rex/openrex-bsp/build-openrex/tmp/sysroots/imx6q-openrex/usr/lib/arm-poky-linux-gnueabi/5.2.0/libgcc.a(_lshrdi3.o)
 .bss           0x0000000000000000        0x0 /home/rex/openrex-bsp/build-openrex/tmp/sysroots/imx6q-openrex/usr/lib/arm-poky-linux-gnueabi/5.2.0/libgcc.a(_lshrdi3.o)
 .data          0x0000000000000000        0x0 /home/rex/openrex-bsp/build-openrex/tmp/sysroots/imx6q-openrex/usr/lib/arm-poky-linux-gnueabi/5.2.0/libgcc.a(_ashldi3.o)
 .bss           0x0000000000000000        0x0 /home/rex/openrex-bsp/build-openrex/tmp/sysroots/imx6q-openrex/usr/lib/arm-poky-linux-gnueabi/5.2.0/libgcc.a(_ashldi3.o)
 .data          0x0000000000000000        0x0 /home/rex/openrex-bsp/build-openrex/tmp/sysroots/imx6q-openrex/usr/lib/arm-poky-linux-gnueabi/5.2.0/libgcc.a(_dvmd_lnx.o)
 .bss           0x0000000000000000        0x0 /home/rex/openrex-bsp/build-openrex/tmp/sysroots/imx6q-openrex/usr/lib/arm-poky-linux-gnueabi/5.2.0/libgcc.a(_dvmd_lnx.o)

Memory Configuration

Name             Origin             Length             Attributes
*default*        0x0000000000000000 0xffffffffffffffff

Linker script and memory map

Address of section .text set to 0x17800000
                0x0000000000000000                . = 0x0
                0x0000000000000000                . = ALIGN (0x4)

.text           0x0000000017800000    0x43604
 *(.__image_copy_start)
 .__image_copy_start
                0x0000000017800000        0x0 arch/arm/lib/built-in.o
                0x0000000017800000                __image_copy_start
 *(.vectors)
 .vectors       0x0000000017800000      0x300 arch/arm/lib/built-in.o
                0x0000000017800000                _start
                0x0000000017800020                _undefined_instruction
                0x0000000017800024                _software_interrupt
                0x0000000017800028                _prefetch_abort
                0x000000001780002c                _data_abort
                0x0000000017800030                _not_used
                0x0000000017800034                _irq
                0x0000000017800038                _fiq
                0x0000000017800040                IRQ_STACK_START_IN
 arch/arm/cpu/armv7/start.o(.text*)
 .text          0x0000000017800300       0xe0 arch/arm/cpu/armv7/start.o
                0x0000000017800300                reset
                0x0000000017800304                save_boot_params_ret
                0x0000000017800340                c_runtime_cpu_setup
                0x0000000017800350                save_boot_params
                0x0000000017800354                cpu_init_cp15
                0x00000000178003d8                cpu_init_crit
 *(.text*)
 .text          0x00000000178003e0       0x24 arch/arm/cpu/armv7/built-in.o
                0x00000000178003e0                lowlevel_init
 .text.v7_maint_dcache_all
                0x0000000017800404       0xd0 arch/arm/cpu/armv7/built-in.o
 .text.invalidate_icache_all
                0x00000000178004d4       0x18 arch/arm/cpu/armv7/built-in.o
                0x00000000178004d4                invalidate_icache_all
 .text.flush_dcache_all
                0x00000000178004ec       0x14 arch/arm/cpu/armv7/built-in.o
                0x00000000178004ec                flush_dcache_all
 .text.invalidate_dcache_all
                0x0000000017800500       0x14 arch/arm/cpu/armv7/built-in.o
                0x0000000017800500                invalidate_dcache_all
 .text.arm_init_before_mmu
                0x0000000017800514       0x28 arch/arm/cpu/armv7/built-in.o
                0x0000000017800514                arm_init_before_mmu
 .text.flush_dcache_range
                0x000000001780053c       0x38 arch/arm/cpu/armv7/built-in.o
                0x000000001780053c                flush_dcache_range
 .text.mmu_page_table_flush
                0x0000000017800574       0x24 arch/arm/cpu/armv7/built-in.o
                0x0000000017800574                mmu_page_table_flush
 .text.invalidate_dcache_range
                0x0000000017800598       0xa8 arch/arm/cpu/armv7/built-in.o
                0x0000000017800598                invalidate_dcache_range
 .text.cpu_cache_initialization
                0x0000000017800640        0x4 arch/arm/cpu/armv7/built-in.o
                0x0000000017800640                cpu_cache_initialization
 .text.cleanup_before_linux_select
                0x0000000017800644       0x4c arch/arm/cpu/armv7/built-in.o
                0x0000000017800644                cleanup_before_linux_select
 .text.cleanup_before_linux
                0x0000000017800690        0x8 arch/arm/cpu/armv7/built-in.o
                0x0000000017800690                cleanup_before_linux
 .text.get_nr_cpus
                0x0000000017800698       0x10 arch/arm/cpu/armv7/built-in.o
                0x0000000017800698                get_nr_cpus
 .text.get_cpu_rev
                0x00000000178006a8       0x90 arch/arm/cpu/armv7/built-in.o
                0x00000000178006a8                get_cpu_rev
 .text.get_cpu_speed_grade_hz
                0x0000000017800738       0xa0 arch/arm/cpu/armv7/built-in.o
                0x0000000017800738                get_cpu_speed_grade_hz
 .text.get_cpu_temp_grade
                0x00000000178007d8       0x68 arch/arm/cpu/armv7/built-in.o
                0x00000000178007d8                get_cpu_temp_grade
 .text.get_board_rev
                0x0000000017800840       0x30 arch/arm/cpu/armv7/built-in.o
                0x0000000017800840                get_board_rev
 .text.arch_cpu_init
                0x0000000017800870       0x94 arch/arm/cpu/armv7/built-in.o
                0x0000000017800870                arch_cpu_init
 .text.board_postclk_init
                0x0000000017800904       0x58 arch/arm/cpu/armv7/built-in.o
                0x0000000017800904                board_postclk_init
 .text.imx_get_mac_from_fuse
                0x000000001780095c       0x3c arch/arm/cpu/armv7/built-in.o
                0x000000001780095c                imx_get_mac_from_fuse
 .text.s_init   0x0000000017800998       0x88 arch/arm/cpu/armv7/built-in.o
                0x0000000017800998                s_init
 .text.get_ipg_clk
                0x0000000017800a20       0x28 arch/arm/cpu/armv7/built-in.o
 .text.get_uart_clk
                0x0000000017800a48       0xb8 arch/arm/cpu/armv7/built-in.o
 .text.mxc_get_pll_pfd
                0x0000000017800b00       0xbc arch/arm/cpu/armv7/built-in.o
 .text.get_usdhc_clk
                0x0000000017800bbc       0x8c arch/arm/cpu/armv7/built-in.o
 .text.enable_ocotp_clk
                0x0000000017800c48       0x24 arch/arm/cpu/armv7/built-in.o
                0x0000000017800c48                enable_ocotp_clk
 .text.enable_usboh3_clk
                0x0000000017800c6c       0x24 arch/arm/cpu/armv7/built-in.o
                0x0000000017800c6c                enable_usboh3_clk
 .text.enable_i2c_clk
                0x0000000017800c90       0xa8 arch/arm/cpu/armv7/built-in.o
                0x0000000017800c90                enable_i2c_clk
 .text.get_periph_clk
                0x0000000017800d38       0xdc arch/arm/cpu/armv7/built-in.o
                0x0000000017800d38                get_periph_clk
 .text.get_axi_clk
                0x0000000017800e14       0x4c arch/arm/cpu/armv7/built-in.o
 .text.imx_get_uartclk
                0x0000000017800e60        0x4 arch/arm/cpu/armv7/built-in.o
                0x0000000017800e60                imx_get_uartclk
 .text.enable_sata_clock
                0x0000000017800e64       0x7c arch/arm/cpu/armv7/built-in.o
                0x0000000017800e64                enable_sata_clock
 .text.disable_sata_clock
                0x0000000017800ee0       0x18 arch/arm/cpu/armv7/built-in.o
                0x0000000017800ee0                disable_sata_clock
 .text.enable_thermal_clk
                0x0000000017800ef8       0x48 arch/arm/cpu/armv7/built-in.o
                0x0000000017800ef8                enable_thermal_clk
 .text.mxc_get_clock
                0x0000000017800f40      0x3b8 arch/arm/cpu/armv7/built-in.o
                0x0000000017800f40                mxc_get_clock
 .text.imx_get_fecclk
                0x00000000178012f8        0x8 arch/arm/cpu/armv7/built-in.o
                0x00000000178012f8                imx_get_fecclk
 .text.do_mx6_showclocks
                0x0000000017801300      0x24c arch/arm/cpu/armv7/built-in.o
                0x0000000017801300                do_mx6_showclocks
 .text.cpu_reset
                0x000000001780154c       0x28 arch/arm/cpu/armv7/built-in.o
                0x000000001780154c                cpu_reset
 .text.cpu_status
                0x0000000017801574       0x40 arch/arm/cpu/armv7/built-in.o
                0x0000000017801574                cpu_status
 .text.cpu_release
                0x00000000178015b4       0x84 arch/arm/cpu/armv7/built-in.o
                0x00000000178015b4                cpu_release
 .text.is_core_valid
                0x0000000017801638       0x1c arch/arm/cpu/armv7/built-in.o
                0x0000000017801638                is_core_valid
 .text.cpu_disable
                0x0000000017801654       0x28 arch/arm/cpu/armv7/built-in.o
                0x0000000017801654                cpu_disable
 .text.imx_iomux_v3_setup_pad
                0x000000001780167c       0xd0 arch/arm/imx-common/built-in.o
                0x000000001780167c                imx_iomux_v3_setup_pad
 .text.imx_iomux_v3_setup_multiple_pads
                0x000000001780174c       0x2c arch/arm/imx-common/built-in.o
                0x000000001780174c                imx_iomux_v3_setup_multiple_pads
 .text.imx_iomux_set_gpr_register
                0x0000000017801778       0x3c arch/arm/imx-common/built-in.o
                0x0000000017801778                imx_iomux_set_gpr_register
 .text.timer_init
                0x00000000178017b4      0x128 arch/arm/imx-common/built-in.o
                0x00000000178017b4                timer_init
 .text.timer_read_counter
                0x00000000178018dc       0x10 arch/arm/imx-common/built-in.o
                0x00000000178018dc                timer_read_counter
 .text.get_tbclk
                0x00000000178018ec       0x90 arch/arm/imx-common/built-in.o
                0x00000000178018ec                get_tbclk
 .text.imx_ddr_size
                0x000000001780197c       0x64 arch/arm/imx-common/built-in.o
                0x000000001780197c                imx_ddr_size
 .text.get_imx_type
                0x00000000178019e0       0x20 arch/arm/imx-common/built-in.o
                0x00000000178019e0                get_imx_type
 .text.print_cpuinfo
                0x0000000017801a00      0x228 arch/arm/imx-common/built-in.o
                0x0000000017801a00                print_cpuinfo
 .text.cpu_eth_init
                0x0000000017801c28        0x4 arch/arm/imx-common/built-in.o
                0x0000000017801c28                cpu_eth_init
 .text.cpu_mmc_init
                0x0000000017801c2c        0x4 arch/arm/imx-common/built-in.o
                0x0000000017801c2c                cpu_mmc_init
 .text.get_ahb_clk
                0x0000000017801c30       0x24 arch/arm/imx-common/built-in.o
                0x0000000017801c30                get_ahb_clk
 .text.arch_preboot_os
                0x0000000017801c54       0x10 arch/arm/imx-common/built-in.o
                0x0000000017801c54                arch_preboot_os
 .text.get_clocks
                0x0000000017801c64       0x1c arch/arm/imx-common/built-in.o
                0x0000000017801c64                get_clocks
 .text.enable_caches
                0x0000000017801c80       0x34 arch/arm/imx-common/built-in.o
                0x0000000017801c80                enable_caches
 .text.v7_outer_cache_enable
                0x0000000017801cb4       0x54 arch/arm/imx-common/built-in.o
                0x0000000017801cb4                v7_outer_cache_enable
 .text.v7_outer_cache_disable
                0x0000000017801d08       0x18 arch/arm/imx-common/built-in.o
                0x0000000017801d08                v7_outer_cache_disable
 .text.init_aips
                0x0000000017801d20       0xb0 arch/arm/imx-common/built-in.o
                0x0000000017801d20                init_aips
 .text.imx_set_wdog_powerdown
                0x0000000017801dd0       0x80 arch/arm/imx-common/built-in.o
                0x0000000017801dd0                imx_set_wdog_powerdown
 .text.init_src
                0x0000000017801e50       0x18 arch/arm/imx-common/built-in.o
                0x0000000017801e50                init_src
 .text.boot_mode_apply
                0x0000000017801e68       0x24 arch/arm/imx-common/built-in.o
                0x0000000017801e68                boot_mode_apply
 .text.setup_sata
                0x0000000017801e8c       0x60 arch/arm/imx-common/built-in.o
                0x0000000017801e8c                setup_sata
 .text.create_usage
                0x0000000017801eec       0xac arch/arm/imx-common/built-in.o
 .text.do_boot_mode
                0x0000000017801f98       0xd4 arch/arm/imx-common/built-in.o
 .text.add_board_boot_modes
                0x000000001780206c       0x60 arch/arm/imx-common/built-in.o
                0x000000001780206c                add_board_boot_modes
 .text          0x00000000178020cc       0xa8 arch/arm/lib/built-in.o
                0x00000000178020cc                _main
 .text.relocate_vectors
                0x0000000017802174       0x70 arch/arm/lib/built-in.o
                0x0000000017802174                relocate_vectors
                0x0000000017802180                relocate_code
 .text.arch_fixup_fdt
                0x00000000178021e4       0x38 arch/arm/lib/built-in.o
                0x00000000178021e4                arch_fixup_fdt
 .text.boot_jump_linux
                0x000000001780221c       0xb8 arch/arm/lib/built-in.o
 .text.arch_lmb_reserve
                0x00000000178022d4       0x24 arch/arm/lib/built-in.o
                0x00000000178022d4                arch_lmb_reserve
 .text.setup_board_tags
                0x00000000178022f8        0x4 arch/arm/lib/built-in.o
                0x00000000178022f8                setup_board_tags
 .text.boot_prep_linux
                0x00000000178022fc      0x190 arch/arm/lib/built-in.o
 .text.do_bootm_linux
                0x000000001780248c       0x64 arch/arm/lib/built-in.o
                0x000000001780248c                do_bootm_linux
 .text.bootz_setup
                0x00000000178024f0       0x58 arch/arm/lib/built-in.o
                0x00000000178024f0                bootz_setup
 .text.boot_prep_vxworks
                0x0000000017802548       0x50 arch/arm/lib/built-in.o
                0x0000000017802548                boot_prep_vxworks
 .text.boot_jump_vxworks
                0x0000000017802598        0xc arch/arm/lib/built-in.o
                0x0000000017802598                boot_jump_vxworks
 .text.pl310_background_op_all_ways
                0x00000000178025a4       0x38 arch/arm/lib/built-in.o
 .text.v7_outer_cache_inval_all
                0x00000000178025dc        0xc arch/arm/lib/built-in.o
                0x00000000178025dc                v7_outer_cache_inval_all
 .text.v7_outer_cache_flush_all
                0x00000000178025e8        0xc arch/arm/lib/built-in.o
                0x00000000178025e8                v7_outer_cache_flush_all
 .text.v7_outer_cache_flush_range
                0x00000000178025f4       0x30 arch/arm/lib/built-in.o
                0x00000000178025f4                v7_outer_cache_flush_range
 .text.v7_outer_cache_inval_range
                0x0000000017802624       0x80 arch/arm/lib/built-in.o
                0x0000000017802624                v7_outer_cache_inval_range
 .text.arch_reserve_stacks
                0x00000000178026a4       0x1c arch/arm/lib/built-in.o
                0x00000000178026a4                arch_reserve_stacks
 .text.interrupt_init
                0x00000000178026c0       0x1c arch/arm/lib/built-in.o
                0x00000000178026c0                interrupt_init
 .text.enable_interrupts
                0x00000000178026dc        0x4 arch/arm/lib/built-in.o
                0x00000000178026dc                enable_interrupts
 .text.disable_interrupts
                0x00000000178026e0        0x8 arch/arm/lib/built-in.o
                0x00000000178026e0                disable_interrupts
 .text.bad_mode
                0x00000000178026e8       0x10 arch/arm/lib/built-in.o
                0x00000000178026e8                bad_mode
 .text.show_regs
                0x00000000178026f8      0x174 arch/arm/lib/built-in.o
                0x00000000178026f8                show_regs
 .text.do_undefined_instruction
                0x000000001780286c       0x20 arch/arm/lib/built-in.o
                0x000000001780286c                do_undefined_instruction
 .text.do_software_interrupt
                0x000000001780288c       0x20 arch/arm/lib/built-in.o
                0x000000001780288c                do_software_interrupt
 .text.do_prefetch_abort
                0x00000000178028ac       0x20 arch/arm/lib/built-in.o
                0x00000000178028ac                do_prefetch_abort
 .text.do_data_abort
                0x00000000178028cc       0x20 arch/arm/lib/built-in.o
                0x00000000178028cc                do_data_abort
 .text.do_not_used
                0x00000000178028ec       0x20 arch/arm/lib/built-in.o
                0x00000000178028ec                do_not_used
 .text.do_fiq   0x000000001780290c       0x20 arch/arm/lib/built-in.o
                0x000000001780290c                do_fiq
 .text.do_irq   0x000000001780292c       0x20 arch/arm/lib/built-in.o
                0x000000001780292c                do_irq
 .text.reset_misc
                0x000000001780294c        0x4 arch/arm/lib/built-in.o
                0x000000001780294c                reset_misc
 .text.do_reset
                0x0000000017802950       0x30 arch/arm/lib/built-in.o
                0x0000000017802950                do_reset
 .text.flush_cache
                0x0000000017802980        0x8 arch/arm/lib/built-in.o
                0x0000000017802980                flush_cache
 .text.cp_delay
                0x0000000017802988       0x30 arch/arm/lib/built-in.o
 .text.arm_init_domains
                0x00000000178029b8        0x4 arch/arm/lib/built-in.o
                0x00000000178029b8                arm_init_domains
 .text.set_section_dcache
                0x00000000178029bc       0x14 arch/arm/lib/built-in.o
                0x00000000178029bc                set_section_dcache
 .text.mmu_set_region_dcache_behaviour
                0x00000000178029d0       0x4c arch/arm/lib/built-in.o
                0x00000000178029d0                mmu_set_region_dcache_behaviour
 .text.dram_bank_mmu_setup
                0x0000000017802a1c       0x44 arch/arm/lib/built-in.o
                0x0000000017802a1c                dram_bank_mmu_setup
 .text.icache_enable
                0x0000000017802a60       0x18 arch/arm/lib/built-in.o
                0x0000000017802a60                icache_enable
 .text.icache_disable
                0x0000000017802a78       0x20 arch/arm/lib/built-in.o
                0x0000000017802a78                icache_disable
 .text.icache_status
                0x0000000017802a98        0xc arch/arm/lib/built-in.o
                0x0000000017802a98                icache_status
 .text.dcache_enable
                0x0000000017802aa4       0x70 arch/arm/lib/built-in.o
                0x0000000017802aa4                dcache_enable
 .text.dcache_disable
                0x0000000017802b14       0x2c arch/arm/lib/built-in.o
                0x0000000017802b14                dcache_disable
 .text.dcache_status
                0x0000000017802b40        0xc arch/arm/lib/built-in.o
                0x0000000017802b40                dcache_status
 .text.dram_init
                0x0000000017802b4c       0x18 board/fedevel/mx6openrex/built-in.o
                0x0000000017802b4c                dram_init
 .text.board_mmc_getcd
                0x0000000017802b64       0x38 board/fedevel/mx6openrex/built-in.o
                0x0000000017802b64                board_mmc_getcd
 .text.board_mmc_init
                0x0000000017802b9c       0x40 board/fedevel/mx6openrex/built-in.o
                0x0000000017802b9c                board_mmc_init
 .text.mx6_rgmii_rework
                0x0000000017802bdc       0xb4 board/fedevel/mx6openrex/built-in.o
                0x0000000017802bdc                mx6_rgmii_rework
 .text.board_phy_config
                0x0000000017802c90       0x2c board/fedevel/mx6openrex/built-in.o
                0x0000000017802c90                board_phy_config
 .text.board_eth_init
                0x0000000017802cbc       0x54 board/fedevel/mx6openrex/built-in.o
                0x0000000017802cbc                board_eth_init
 .text.board_ehci_hcd_init
                0x0000000017802d10       0x28 board/fedevel/mx6openrex/built-in.o
                0x0000000017802d10                board_ehci_hcd_init
 .text.board_ehci_power
                0x0000000017802d38        0x8 board/fedevel/mx6openrex/built-in.o
                0x0000000017802d38                board_ehci_power
 .text.board_early_init_f
                0x0000000017802d40       0x1c board/fedevel/mx6openrex/built-in.o
                0x0000000017802d40                board_early_init_f
 .text.board_init
                0x0000000017802d5c       0xa8 board/fedevel/mx6openrex/built-in.o
                0x0000000017802d5c                board_init
 .text.power_init_board
                0x0000000017802e04        0x8 board/fedevel/mx6openrex/built-in.o
                0x0000000017802e04                power_init_board
 .text.board_spi_cs_gpio
                0x0000000017802e0c       0x14 board/fedevel/mx6openrex/built-in.o
                0x0000000017802e0c                board_spi_cs_gpio
 .text.board_late_init
                0x0000000017802e20       0xbc board/fedevel/mx6openrex/built-in.o
                0x0000000017802e20                board_late_init
 .text.checkboard
                0x0000000017802edc       0x18 board/fedevel/mx6openrex/built-in.o
                0x0000000017802edc                checkboard
 .text.show_boot_progress
                0x0000000017802ef4        0x4 common/built-in.o
                0x0000000017802ef4                show_boot_progress
 .text.main_loop
                0x0000000017802ef8       0x20 common/built-in.o
                0x0000000017802ef8                main_loop
 .text.dummy    0x0000000017802f18        0x4 common/built-in.o
 .text.get_version
                0x0000000017802f1c        0x8 common/built-in.o
                0x0000000017802f1c                get_version
 .text.jumptable_init
                0x0000000017802f24      0x1e0 common/built-in.o
                0x0000000017802f24                jumptable_init
 .text.hash_finish_crc32
                0x0000000017803104       0x30 common/built-in.o
 .text.hash_update_crc32
                0x0000000017803134       0x24 common/built-in.o
 .text.hash_init_crc32
                0x0000000017803158       0x24 common/built-in.o
 .text.hash_lookup_algo
                0x000000001780317c       0x28 common/built-in.o
                0x000000001780317c                hash_lookup_algo
 .text.hash_command
                0x00000000178031a4       0xb4 common/built-in.o
                0x00000000178031a4                hash_command
 .text.b_reset  0x0000000017803258       0x1c common/built-in.o
 .text.static_get
                0x0000000017803274       0x1c common/built-in.o
 .text.file_peek
                0x0000000017803290        0xc common/built-in.o
 .text.mapset   0x000000001780329c       0x20 common/built-in.o
 .text.syntax_err
                0x00000000178032bc        0xc common/built-in.o
 .text.free_pipe_list
                0x00000000178032c8       0xf4 common/built-in.o
 .text.xmalloc  0x00000000178033bc       0x20 common/built-in.o
 .text.new_pipe
                0x00000000178033dc       0x28 common/built-in.o
 .text.xrealloc
                0x0000000017803404       0x20 common/built-in.o
 .text.done_command
                0x0000000017803424       0x88 common/built-in.o
 .text.done_pipe
                0x00000000178034ac       0x48 common/built-in.o
 .text.done_word
                0x00000000178034f4      0x2d8 common/built-in.o
 .text.do_showvar
                0x00000000178037cc       0xf4 common/built-in.o
 .text.is_assignment
                0x00000000178038c0       0x5c common/built-in.o
 .text.file_get
                0x000000001780391c      0x1ec common/built-in.o
 .text.b_addchr
                0x0000000017803b08       0x80 common/built-in.o
 .text.b_addqchr
                0x0000000017803b88       0x50 common/built-in.o
 .text.static_peek
                0x0000000017803bd8        0xc common/built-in.o
 .text.get_local_var
                0x0000000017803be4       0xa0 common/built-in.o
                0x0000000017803be4                get_local_var
 .text.set_local_var
                0x0000000017803c84      0x1ac common/built-in.o
                0x0000000017803c84                set_local_var
 .text.insert_var_value_sub
                0x0000000017803e30      0x2c0 common/built-in.o
 .text.parse_string_outer
                0x00000000178040f0       0xe4 common/built-in.o
                0x00000000178040f0                parse_string_outer
 .text.run_list_real
                0x00000000178041d4      0x7b8 common/built-in.o
 .text.parse_stream_outer
                0x000000001780498c      0x6d0 common/built-in.o
 .text.parse_file_outer
                0x000000001780505c       0x44 common/built-in.o
                0x000000001780505c                parse_file_outer
 .text.u_boot_hush_start
                0x00000000178050a0       0x54 common/built-in.o
                0x00000000178050a0                u_boot_hush_start
 .text.bootdelay_process
                0x00000000178050f4       0x50 common/built-in.o
                0x00000000178050f4                bootdelay_process
 .text.autoboot_command
                0x0000000017805144       0xd0 common/built-in.o
                0x0000000017805144                autoboot_command
 .text.setup_mon_len
                0x0000000017805214       0x20 common/built-in.o
 .text.reserve_round_4k
                0x0000000017805234       0x18 common/built-in.o
 .text.reserve_mmu
                0x000000001780524c       0x38 common/built-in.o
 .text.reserve_uboot
                0x0000000017805284       0x30 common/built-in.o
 .text.reserve_malloc
                0x00000000178052b4       0x18 common/built-in.o
 .text.setup_machine
                0x00000000178052cc       0x14 common/built-in.o
 .text.reserve_global_data
                0x00000000178052e0       0x1c common/built-in.o
 .text.reserve_fdt
                0x00000000178052fc       0x4c common/built-in.o
 .text.display_new_sp
                0x0000000017805348        0x8 common/built-in.o
 .text.arch_cpu_init_dm
                0x0000000017805350        0x8 common/built-in.o
                0x0000000017805350                arch_cpu_init_dm
 .text.announce_dram_init
                0x0000000017805358       0x18 common/built-in.o
 .text.init_func_i2c
                0x0000000017805370       0x28 common/built-in.o
 .text.init_baud_rate
                0x0000000017805398       0x2c common/built-in.o
 .text.initf_dm
                0x00000000178053c4        0x8 common/built-in.o
 .text.mark_bootstage
                0x00000000178053cc       0x14 common/built-in.o
 .text.setup_reloc
                0x00000000178053e0       0x3c common/built-in.o
 .text.reloc_fdt
                0x000000001780541c       0x44 common/built-in.o
 .text.reserve_board
                0x0000000017805460       0x40 common/built-in.o
 .text.reserve_arch
                0x00000000178054a0        0x8 common/built-in.o
                0x00000000178054a0                reserve_arch
 .text.display_text_info
                0x00000000178054a8        0x8 common/built-in.o
 .text.reserve_trace
                0x00000000178054b0        0x8 common/built-in.o
 .text.coloured_LED_init
                0x00000000178054b8        0x4 common/built-in.o
                0x00000000178054b8                coloured_LED_init
 .text.red_led_on
                0x00000000178054bc        0x4 common/built-in.o
                0x00000000178054bc                red_led_on
 .text.board_add_ram_info
                0x00000000178054c0        0x4 common/built-in.o
                0x00000000178054c0                board_add_ram_info
 .text.show_dram_config
                0x00000000178054c4       0x38 common/built-in.o
 .text.dram_init_banksize
                0x00000000178054fc       0x20 common/built-in.o
                0x00000000178054fc                dram_init_banksize
 .text.setup_dram_config
                0x000000001780551c       0x10 common/built-in.o
 .text.board_get_usable_ram_top
                0x000000001780552c       0x14 common/built-in.o
                0x000000001780552c                board_get_usable_ram_top
 .text.setup_dest_addr
                0x0000000017805540       0x3c common/built-in.o
 .text.reserve_stacks
                0x000000001780557c       0x1c common/built-in.o
 .text.board_init_f
                0x0000000017805598       0x28 common/built-in.o
                0x0000000017805598                board_init_f
 .text.bootstage_relocate
                0x00000000178055c0        0x8 common/built-in.o
 .text.initr_reloc_global_data
                0x00000000178055c8       0x28 common/built-in.o
 .text.initr_announce
                0x00000000178055f0        0x8 common/built-in.o
 .text.run_main_loop
                0x00000000178055f8        0xc common/built-in.o
 .text.initr_net
                0x0000000017805604       0x1c common/built-in.o
 .text.initr_ethaddr
                0x0000000017805620       0x20 common/built-in.o
 .text.initr_enable_interrupts
                0x0000000017805640       0x10 common/built-in.o
 .text.initr_jumptable
                0x0000000017805650       0x10 common/built-in.o
 .text.initr_env
                0x0000000017805660       0x30 common/built-in.o
 .text.initr_mmc
                0x0000000017805690       0x20 common/built-in.o
 .text.initr_serial
                0x00000000178056b0       0x10 common/built-in.o
 .text.initr_dm
                0x00000000178056c0       0x14 common/built-in.o
 .text.initr_malloc
                0x00000000178056d4       0x24 common/built-in.o
 .text.initr_caches
                0x00000000178056f8       0x10 common/built-in.o
 .text.initr_reloc
                0x0000000017805708       0x24 common/built-in.o
 .text.initr_barrier
                0x000000001780572c        0x8 common/built-in.o
 .text.initr_trace
                0x0000000017805734        0x8 common/built-in.o
 .text.cpu_secondary_init_r
                0x000000001780573c        0x4 common/built-in.o
                0x000000001780573c                cpu_secondary_init_r
 .text.initr_secondary_cpu
                0x0000000017805740       0x10 common/built-in.o
 .text.board_init_r
                0x0000000017805750       0x14 common/built-in.o
                0x0000000017805750                board_init_r
 .text.show_board_info
                0x0000000017805764        0x4 common/built-in.o
                0x0000000017805764                show_board_info
 .text.do_go_exec
                0x0000000017805768       0x10 common/built-in.o
                0x0000000017805768                do_go_exec
 .text.do_go    0x0000000017805778       0x6c common/built-in.o
 .text.do_bootm
                0x00000000178057e4      0x10c common/built-in.o
                0x00000000178057e4                do_bootm
 .text.do_bootd
                0x00000000178058f0       0x20 common/built-in.o
                0x00000000178058f0                do_bootd
 .text.image_info
                0x0000000017805910       0xcc common/built-in.o
 .text.do_iminfo
                0x00000000178059dc       0x5c common/built-in.o
 .text.bootm_maybe_autostart
                0x0000000017805a38       0x78 common/built-in.o
                0x0000000017805a38                bootm_maybe_autostart
 .text.do_bootz
                0x0000000017805ab0       0xf8 common/built-in.o
                0x0000000017805ab0                do_bootz
 .text.bootm_find_images
                0x0000000017805ba8       0xa8 common/built-in.o
                0x0000000017805ba8                bootm_find_images
 .text.bootm_decomp_image
                0x0000000017805c50      0x14c common/built-in.o
                0x0000000017805c50                bootm_decomp_image
 .text.bootm_disable_interrupts
                0x0000000017805d9c       0x18 common/built-in.o
                0x0000000017805d9c                bootm_disable_interrupts
 .text.do_bootm_states
                0x0000000017805db4      0x7e4 common/built-in.o
                0x0000000017805db4                do_bootm_states
 .text.copy_args
                0x0000000017806598       0x50 common/built-in.o
 .text.do_bootm_rtems
                0x00000000178065e8       0x40 common/built-in.o
 .text.do_bootm_plan9
                0x0000000017806628       0xa4 common/built-in.o
 .text.do_bootm_standalone
                0x00000000178066cc       0x64 common/built-in.o
 .text.do_bootm_netbsd
                0x0000000017806730       0xf8 common/built-in.o
 .text.do_bootvx_fdt
                0x0000000017806828      0x10c common/built-in.o
                0x0000000017806828                do_bootvx_fdt
 .text.do_bootm_vxworks
                0x0000000017806934       0x24 common/built-in.o
 .text.boot_selected_os
                0x0000000017806958       0x58 common/built-in.o
                0x0000000017806958                boot_selected_os
 .text.bootm_os_get_boot_func
                0x00000000178069b0       0x10 common/built-in.o
                0x00000000178069b0                bootm_os_get_boot_func
 .text.do_help  0x00000000178069c0       0x44 common/built-in.o
 .text.do_version
                0x0000000017806a04       0x38 common/built-in.o
 .text.regex_callback
                0x0000000017806a3c      0x134 common/built-in.o
 .text.env_attr_walk
                0x0000000017806b70      0x128 common/built-in.o
                0x0000000017806b70                env_attr_walk
 .text.env_attr_lookup
                0x0000000017806c98       0x84 common/built-in.o
                0x0000000017806c98                env_attr_lookup
 .text.clear_callback
                0x0000000017806d1c       0x10 common/built-in.o
 .text.find_env_callback
                0x0000000017806d2c       0x64 common/built-in.o
 .text.on_callbacks
                0x0000000017806d90       0x50 common/built-in.o
 .text.set_callback
                0x0000000017806de0       0x94 common/built-in.o
 .text.env_callback_init
                0x0000000017806e74       0xc4 common/built-in.o
                0x0000000017806e74                env_callback_init
 .text.skip_num
                0x0000000017806f38       0x78 common/built-in.o
 .text.clear_flags
                0x0000000017806fb0       0x10 common/built-in.o
 .text.on_flags
                0x0000000017806fc0       0x50 common/built-in.o
 .text.env_flags_parse_vartype
                0x0000000017807010       0x50 common/built-in.o
                0x0000000017807010                env_flags_parse_vartype
 .text.env_flags_parse_varaccess
                0x0000000017807060       0x58 common/built-in.o
                0x0000000017807060                env_flags_parse_varaccess
 .text.set_flags
                0x00000000178070b8       0xac common/built-in.o
 .text.eth_validate_ethaddr_str
                0x0000000017807164       0x94 common/built-in.o
                0x0000000017807164                eth_validate_ethaddr_str
 .text.env_flags_init
                0x00000000178071f8       0xd8 common/built-in.o
                0x00000000178071f8                env_flags_init
 .text.env_flags_validate
                0x00000000178072d0      0x2b8 common/built-in.o
                0x00000000178072d0                env_flags_validate
 .text.saveenv  0x0000000017807588       0xe0 common/built-in.o
                0x0000000017807588                saveenv
 .text.env_relocate_spec
                0x0000000017807668       0xcc common/built-in.o
                0x0000000017807668                env_relocate_spec
 .text.env_init
                0x0000000017807734       0x1c common/built-in.o
                0x0000000017807734                env_init
 .text.source   0x0000000017807750       0xd8 common/built-in.o
                0x0000000017807750                source
 .text.do_source
                0x0000000017807828       0x44 common/built-in.o
 .text.print_num
                0x000000001780786c       0x14 common/built-in.o
 .text.do_bdinfo
                0x0000000017807880      0x180 common/built-in.o
 .text.parse_argv
                0x0000000017807a00       0x64 common/built-in.o
 .text.do_icache
                0x0000000017807a64       0x88 common/built-in.o
 .text.do_dcache
                0x0000000017807aec       0x88 common/built-in.o
 .text.do_coninfo
                0x0000000017807b74       0xc0 common/built-in.o
 .text.do_echo  0x0000000017807c34       0xb0 common/built-in.o
 .text.do_exit  0x0000000017807ce4       0x3c common/built-in.o
 .text.do_ext4_size
                0x0000000017807d20       0x18 common/built-in.o
                0x0000000017807d20                do_ext4_size
 .text.do_ext4_load
                0x0000000017807d38       0x18 common/built-in.o
                0x0000000017807d38                do_ext4_load
 .text.do_ext4_ls
                0x0000000017807d50       0x18 common/built-in.o
                0x0000000017807d50                do_ext4_ls
 .text.do_ext4_write
                0x0000000017807d68       0x18 common/built-in.o
                0x0000000017807d68                do_ext4_write
 .text.do_ext2load
                0x0000000017807d80       0x18 common/built-in.o
                0x0000000017807d80                do_ext2load
 .text.do_ext2ls
                0x0000000017807d98       0x18 common/built-in.o
 .text.do_fat_size
                0x0000000017807db0       0x18 common/built-in.o
                0x0000000017807db0                do_fat_size
 .text.do_fat_fsload
                0x0000000017807dc8       0x18 common/built-in.o
                0x0000000017807dc8                do_fat_fsload
 .text.do_fat_ls
                0x0000000017807de0       0x18 common/built-in.o
 .text.do_fat_fsinfo
                0x0000000017807df8       0x90 common/built-in.o
 .text.do_fat_fswrite
                0x0000000017807e88      0x10c common/built-in.o
 .text.fdt_valid
                0x0000000017807f94       0xbc common/built-in.o
 .text.is_printable_string
                0x0000000017808050       0x9c common/built-in.o
 .text.print_data
                0x00000000178080ec      0x174 common/built-in.o
 .text.set_working_fdt_addr
                0x0000000017808260       0x1c common/built-in.o
                0x0000000017808260                set_working_fdt_addr
 .text.do_fdt   0x000000001780827c      0xe48 common/built-in.o
 .text.fdt_find_and_setprop
                0x00000000178090c4       0x70 common/built-in.o
                0x00000000178090c4                fdt_find_and_setprop
 .text.fdt_find_or_add_subnode
                0x0000000017809134       0x60 common/built-in.o
                0x0000000017809134                fdt_find_or_add_subnode
 .text.fdt_root
                0x0000000017809194       0x90 common/built-in.o
                0x0000000017809194                fdt_root
 .text.fdt_initrd
                0x0000000017809224      0x1cc common/built-in.o
                0x0000000017809224                fdt_initrd
 .text.fdt_chosen
                0x00000000178093f0       0xa8 common/built-in.o
                0x00000000178093f0                fdt_chosen
 .text.do_fixup_by_path
                0x0000000017809498       0x54 common/built-in.o
                0x0000000017809498                do_fixup_by_path
 .text.fdt_fixup_memory_banks
                0x00000000178094ec      0x1b0 common/built-in.o
                0x00000000178094ec                fdt_fixup_memory_banks
 .text.fdt_fixup_memory
                0x000000001780969c       0x20 common/built-in.o
                0x000000001780969c                fdt_fixup_memory
 .text.fdt_fixup_ethernet
                0x00000000178096bc      0x15c common/built-in.o
                0x00000000178096bc                fdt_fixup_ethernet
 .text.fdt_shrink_to_minimum
                0x0000000017809818       0xcc common/built-in.o
                0x0000000017809818                fdt_shrink_to_minimum
 .text.do_size_wrapper
                0x00000000178098e4       0x18 common/built-in.o
 .text.do_load_wrapper
                0x00000000178098fc       0x18 common/built-in.o
 .text.do_save_wrapper
                0x0000000017809914       0x18 common/built-in.o
 .text.do_ls_wrapper
                0x000000001780992c       0x18 common/built-in.o
 .text.do_fstype_wrapper
                0x0000000017809944        0x4 common/built-in.o
 .text.strtou32
                0x0000000017809948       0x44 common/built-in.o
 .text.do_fuse  0x000000001780998c      0x360 common/built-in.o
 .text.name_to_gpio
                0x0000000017809cec        0xc common/built-in.o
                0x0000000017809cec                name_to_gpio
 .text.do_gpio  0x0000000017809cf8      0x150 common/built-in.o
 .text.do_i2c   0x0000000017809e48       0x68 common/built-in.o
 .text.do_i2c_reset
                0x0000000017809eb0       0x2c common/built-in.o
 .text.do_i2c_probe
                0x0000000017809edc       0x9c common/built-in.o
 .text.do_i2c_bus_speed
                0x0000000017809f78       0x74 common/built-in.o
 .text.do_i2c_show_bus
                0x0000000017809fec       0xd0 common/built-in.o
 .text.do_i2c_bus_num
                0x000000001780a0bc       0xb4 common/built-in.o
 .text.get_alen.constprop.7
                0x000000001780a170       0x3c common/built-in.o
 .text.do_i2c_crc
                0x000000001780a1ac      0x120 common/built-in.o
 .text.mod_i2c_mem.isra.4
                0x000000001780a2cc      0x1f0 common/built-in.o
 .text.do_i2c_nm
                0x000000001780a4bc        0x8 common/built-in.o
 .text.do_i2c_mm
                0x000000001780a4c4        0x8 common/built-in.o
 .text.do_i2c_md
                0x000000001780a4cc      0x1e4 common/built-in.o
 .text.do_i2c_read
                0x000000001780a6b0       0xbc common/built-in.o
 .text.do_i2c_mw
                0x000000001780a76c       0xfc common/built-in.o
 .text.do_i2c_write
                0x000000001780a868      0x14c common/built-in.o
 .text.do_i2c_loop
                0x000000001780a9b4       0xe4 common/built-in.o
 .text.i2c_init_board
                0x000000001780aa98        0x4 common/built-in.o
                0x000000001780aa98                i2c_init_board
 .text.evalexp  0x000000001780aa9c       0x74 common/built-in.o
 .text.evalstr  0x000000001780ab10       0x6c common/built-in.o
 .text.binary_test
                0x000000001780ab7c      0x1c0 common/built-in.o
 .text.do_itest
                0x000000001780ad3c       0x88 common/built-in.o
 .text.bin_data_init
                0x000000001780adc4       0x2c common/built-in.o
 .text.k_data_save
                0x000000001780adf0       0x4c common/built-in.o
 .text.k_data_restore
                0x000000001780ae3c       0x4c common/built-in.o
 .text.getcxmodem
                0x000000001780ae88       0x20 common/built-in.o
 .text.load_serial_ymodem
                0x000000001780aea8       0xcc common/built-in.o
 .text.bin_data_char
                0x000000001780af74       0x2c common/built-in.o
 .text.chk1.constprop.1
                0x000000001780afa0       0x2c common/built-in.o
 .text.s1_sendpacket.constprop.2
                0x000000001780afcc       0x50 common/built-in.o
 .text.load_serial
                0x000000001780b01c      0x1f0 common/built-in.o
 .text.do_load_serial
                0x000000001780b20c       0xdc common/built-in.o
 .text.do_load_serial_bin
                0x000000001780b2e8      0x7a4 common/built-in.o
 .text.do_mem_mw
                0x000000001780ba8c       0xc0 common/built-in.o
 .text.do_mem_loop
                0x000000001780bb4c       0xec common/built-in.o
 .text.do_mem_md
                0x000000001780bc38       0xe4 common/built-in.o
 .text.do_mem_cmp
                0x000000001780bd1c      0x168 common/built-in.o
 .text.do_mem_base
                0x000000001780be84       0x40 common/built-in.o
 .text.do_mem_cp
                0x000000001780bec4       0xd8 common/built-in.o
 .text.do_mem_crc
                0x000000001780bf9c       0x48 common/built-in.o
 .text.mod_mem.isra.0
                0x000000001780bfe4      0x16c common/built-in.o
 .text.do_mem_mm
                0x000000001780c150        0x8 common/built-in.o
 .text.do_mem_nm
                0x000000001780c158        0x8 common/built-in.o
 .text.miiphy_get_dev_by_name
                0x000000001780c160       0x60 common/built-in.o
                0x000000001780c160                miiphy_get_dev_by_name
 .text.miiphy_init
                0x000000001780c1c0       0x24 common/built-in.o
                0x000000001780c1c0                miiphy_init
 .text.mdio_alloc
                0x000000001780c1e4       0x30 common/built-in.o
                0x000000001780c1e4                mdio_alloc
 .text.mdio_register
                0x000000001780c214       0x98 common/built-in.o
                0x000000001780c214                mdio_register
 .text.mdio_list_devices
                0x000000001780c2ac       0x98 common/built-in.o
                0x000000001780c2ac                mdio_list_devices
 .text.miiphy_set_current_dev
                0x000000001780c344       0x40 common/built-in.o
                0x000000001780c344                miiphy_set_current_dev
 .text.miiphy_get_active_dev
                0x000000001780c384       0x54 common/built-in.o
 .text.mdio_get_current_dev
                0x000000001780c3d8       0x10 common/built-in.o
                0x000000001780c3d8                mdio_get_current_dev
 .text.mdio_phydev_for_ethname
                0x000000001780c3e8       0x88 common/built-in.o
                0x000000001780c3e8                mdio_phydev_for_ethname
 .text.miiphy_get_current_dev
                0x000000001780c470       0x18 common/built-in.o
                0x000000001780c470                miiphy_get_current_dev
 .text.miiphy_read
                0x000000001780c488       0x4c common/built-in.o
                0x000000001780c488                miiphy_read
 .text.miiphy_write
                0x000000001780c4d4       0x40 common/built-in.o
                0x000000001780c4d4                miiphy_write
 .text.miiphy_listdev
                0x000000001780c514       0x74 common/built-in.o
                0x000000001780c514                miiphy_listdev
 .text.miiphy_info
                0x000000001780c588       0x88 common/built-in.o
                0x000000001780c588                miiphy_info
 .text.miiphy_speed
                0x000000001780c610       0x94 common/built-in.o
                0x000000001780c610                miiphy_speed
 .text.miiphy_duplex
                0x000000001780c6a4       0x94 common/built-in.o
                0x000000001780c6a4                miiphy_duplex
 .text.miiphy_is_1000base_x
                0x000000001780c738        0x8 common/built-in.o
                0x000000001780c738                miiphy_is_1000base_x
 .text.extract_range
                0x000000001780c740       0xe4 common/built-in.o
 .text.do_mii   0x000000001780c824      0x8d4 common/built-in.o
 .text.do_mdio  0x000000001780d0f8      0x4ec common/built-in.o
 .text.do_sleep
                0x000000001780d5e4       0x70 common/built-in.o
 .text.do_mmcops
                0x000000001780d654       0xb8 common/built-in.o
 .text.init_mmc_device
                0x000000001780d70c       0x54 common/built-in.o
 .text.do_mmc_rescan
                0x000000001780d760       0x24 common/built-in.o
 .text.do_mmc_hwpartition
                0x000000001780d784      0x510 common/built-in.o
 .text.do_mmc_list
                0x000000001780dc94       0x14 common/built-in.o
 .text.do_mmc_dev
                0x000000001780dca8      0x134 common/built-in.o
 .text.do_mmc_part
                0x000000001780dddc       0x5c common/built-in.o
 .text.do_mmc_erase
                0x000000001780de38       0xe8 common/built-in.o
 .text.do_mmc_write
                0x000000001780df20      0x100 common/built-in.o
 .text.do_mmc_read
                0x000000001780e020       0xec common/built-in.o
 .text.do_mmcinfo
                0x000000001780e10c      0x370 common/built-in.o
 .text.do_mmc_setdsr
                0x000000001780e47c       0xb0 common/built-in.o
 .text.cpu_cmd  0x000000001780e52c      0x160 common/built-in.o
 .text.netboot_common
                0x000000001780e68c      0x294 common/built-in.o
 .text.do_bootp
                0x000000001780e920        0xc common/built-in.o
 .text.do_dhcp  0x000000001780e92c        0xc common/built-in.o
 .text.do_nfs   0x000000001780e938        0xc common/built-in.o
 .text.do_tftpb
                0x000000001780e944       0x40 common/built-in.o
                0x000000001780e944                do_tftpb
 .text.do_ping  0x000000001780e984       0x78 common/built-in.o
 .text.__sata_initialize
                0x000000001780e9fc       0xb0 common/built-in.o
                0x000000001780e9fc                sata_initialize
                0x000000001780e9fc                __sata_initialize
 .text.__sata_stop
                0x000000001780eaac       0x28 common/built-in.o
                0x000000001780eaac                __sata_stop
                0x000000001780eaac                sata_stop
 .text.do_sata  0x000000001780ead4      0x3fc common/built-in.o
 .text.sata_get_dev
                0x000000001780eed0       0x1c common/built-in.o
                0x000000001780eed0                sata_get_dev
 .text.bytes_per_second
                0x000000001780eeec       0x50 common/built-in.o
 .text.do_spi_flash
                0x000000001780ef3c      0x864 common/built-in.o
 .text.substitute
                0x000000001780f7a0       0xf0 common/built-in.o
 .text.get_arg  0x000000001780f890       0x58 common/built-in.o
 .text.regex_sub
                0x000000001780f8e8      0x450 common/built-in.o
 .text.do_setexpr
                0x000000001780fd38      0x1a0 common/built-in.o
 .text.do_false
                0x000000001780fed8        0x8 common/built-in.o
 .text.do_true  0x000000001780fee0        0x8 common/built-in.o
 .text.do_test  0x000000001780fee8      0x338 common/built-in.o
 .text.usb_get_class_desc
                0x0000000017810220       0xbc common/built-in.o
 .text.usb_display_class_sub
                0x00000000178102dc      0x170 common/built-in.o
 .text.usb_find_device
                0x000000001781044c       0x3c common/built-in.o
 .text.usb_show_tree_graph
                0x0000000017810488      0x228 common/built-in.o
 .text.usb_display_string
                0x00000000178106b0       0x44 common/built-in.o
 .text.usb_display_config
                0x00000000178106f4      0x20c common/built-in.o
 .text.do_usbboot
                0x0000000017810900        0xc common/built-in.o
 .text.do_usb_start
                0x000000001781090c       0x38 common/built-in.o
 .text.usb_display_desc.part.2
                0x0000000017810944      0x12c common/built-in.o
 .text.do_usb   0x0000000017810a70      0x78c common/built-in.o
 .text.usb_set_maxpacket_ep
                0x00000000178111fc       0x70 common/built-in.o
 .text.usb_stop
                0x000000001781126c       0x80 common/built-in.o
                0x000000001781126c                usb_stop
 .text.usb_disable_asynch
                0x00000000178112ec       0x20 common/built-in.o
                0x00000000178112ec                usb_disable_asynch
 .text.usb_control_msg
                0x000000001781130c       0xc0 common/built-in.o
                0x000000001781130c                usb_control_msg
 .text.usb_get_descriptor
                0x00000000178113cc       0x58 common/built-in.o
 .text.get_descriptor_len
                0x0000000017811424       0x90 common/built-in.o
 .text.usb_get_string
                0x00000000178114b4       0x70 common/built-in.o
 .text.usb_string_sub
                0x0000000017811524      0x108 common/built-in.o
 .text.usb_bulk_msg
                0x000000001781162c       0x70 common/built-in.o
                0x000000001781162c                usb_bulk_msg
 .text.usb_maxpacket
                0x000000001781169c       0x1c common/built-in.o
                0x000000001781169c                usb_maxpacket
 .text.usb_clear_halt
                0x00000000178116b8       0x90 common/built-in.o
                0x00000000178116b8                usb_clear_halt
 .text.usb_get_configuration_no
                0x0000000017811748       0xbc common/built-in.o
                0x0000000017811748                usb_get_configuration_no
 .text.usb_set_interface
                0x0000000017811804       0xb4 common/built-in.o
                0x0000000017811804                usb_set_interface
 .text.usb_string
                0x00000000178118b8      0x100 common/built-in.o
                0x00000000178118b8                usb_string
 .text.usb_get_dev_index
                0x00000000178119b8       0x24 common/built-in.o
                0x00000000178119b8                usb_get_dev_index
 .text.usb_alloc_new_device
                0x00000000178119dc       0x9c common/built-in.o
                0x00000000178119dc                usb_alloc_new_device
 .text.usb_free_device
                0x0000000017811a78       0x48 common/built-in.o
                0x0000000017811a78                usb_free_device
 .text.usb_alloc_device
                0x0000000017811ac0        0x8 common/built-in.o
                0x0000000017811ac0                usb_alloc_device
 .text.usb_select_config
                0x0000000017811ac8      0x418 common/built-in.o
                0x0000000017811ac8                usb_select_config
 .text.usb_setup_device
                0x0000000017811ee0      0x19c common/built-in.o
                0x0000000017811ee0                usb_setup_device
 .text.usb_new_device
                0x000000001781207c       0x34 common/built-in.o
                0x000000001781207c                usb_new_device
 .text.usb_init
                0x00000000178120b0      0x168 common/built-in.o
                0x00000000178120b0                usb_init
 .text.board_usb_init
                0x0000000017812218        0x8 common/built-in.o
                0x0000000017812218                board_usb_init
 .text.board_usb_cleanup
                0x0000000017812220        0x8 common/built-in.o
                0x0000000017812220                board_usb_cleanup
 .text.usb_device_has_child_on_port
                0x0000000017812228       0x14 common/built-in.o
                0x0000000017812228                usb_device_has_child_on_port
 .text.usb_set_port_feature
                0x000000001781223c       0x4c common/built-in.o
 .text.usb_clear_port_feature
                0x0000000017812288       0x4c common/built-in.o
 .text.usb_get_hub_descriptor
                0x00000000178122d4       0x4c common/built-in.o
 .text.usb_hub_power_on
                0x0000000017812320       0x6c common/built-in.o
 .text.usb_hub_reset_devices
                0x000000001781238c        0x4 common/built-in.o
                0x000000001781238c                usb_hub_reset_devices
 .text.usb_get_port_status
                0x0000000017812390       0x4c common/built-in.o
                0x0000000017812390                usb_get_port_status
 .text.usb_hub_reset
                0x00000000178123dc       0x14 common/built-in.o
                0x00000000178123dc                usb_hub_reset
 .text.legacy_hub_port_reset
                0x00000000178123f0       0xa0 common/built-in.o
                0x00000000178123f0                legacy_hub_port_reset
 .text.usb_hub_port_connect_change
                0x0000000017812490      0x16c common/built-in.o
                0x0000000017812490                usb_hub_port_connect_change
 .text.usb_hub_configure
                0x00000000178125fc      0x2c8 common/built-in.o
 .text.usb_hub_probe
                0x00000000178128c4       0x58 common/built-in.o
                0x00000000178128c4                usb_hub_probe
 .text.usb_stor_irq
                0x000000001781291c       0x1c common/built-in.o
 .text.usb_stor_BBB_reset
                0x0000000017812938       0xd0 common/built-in.o
 .text.usb_stor_CB_reset
                0x0000000017812a08       0xd0 common/built-in.o
 .text.usb_stor_BBB_clear_endpt_stall.isra.2
                0x0000000017812ad8       0x40 common/built-in.o
 .text.usb_stor_BBB_transport
                0x0000000017812b18      0x25c common/built-in.o
 .text.usb_stor_CB_comdat
                0x0000000017812d74      0x204 common/built-in.o
 .text.usb_stor_CBI_get_status.isra.4
                0x0000000017812f78       0xc8 common/built-in.o
 .text.usb_stor_CB_transport
                0x0000000017813040      0x228 common/built-in.o
 .text.usb_request_sense.constprop.10
                0x0000000017813268       0x70 common/built-in.o
 .text.usb_stor_write
                0x00000000178132d8      0x188 common/built-in.o
                0x00000000178132d8                usb_stor_write
 .text.usb_stor_read
                0x0000000017813460      0x188 common/built-in.o
                0x0000000017813460                usb_stor_read
 .text.usb_stor_get_dev
                0x00000000178135e8       0x28 common/built-in.o
                0x00000000178135e8                usb_stor_get_dev
 .text.usb_stor_info
                0x0000000017813610       0x74 common/built-in.o
                0x0000000017813610                usb_stor_info
 .text.usb_storage_probe
                0x0000000017813684      0x204 common/built-in.o
                0x0000000017813684                usb_storage_probe
 .text.usb_stor_get_info
                0x0000000017813888      0x31c common/built-in.o
                0x0000000017813888                usb_stor_get_info
 .text.usb_stor_scan
                0x0000000017813ba4      0x1f8 common/built-in.o
                0x0000000017813ba4                usb_stor_scan
 .text.do_fastboot
                0x0000000017813d9c       0xd8 common/built-in.o
 .text.ums_read_sector
                0x0000000017813e74       0x24 common/built-in.o
 .text.ums_write_sector
                0x0000000017813e98       0x24 common/built-in.o
 .text.ums_init
                0x0000000017813ebc       0x60 common/built-in.o
                0x0000000017813ebc                ums_init
 .text.do_usb_mass_storage
                0x0000000017813f1c      0x1a8 common/built-in.o
                0x0000000017813f1c                do_usb_mass_storage
 .text.do_imgextract
                0x00000000178140c4      0x28c common/built-in.o
 .text.do_dfu   0x0000000017814350      0x118 common/built-in.o
 .text.do_env_delete
                0x0000000017814468       0x9c common/built-in.o
 .text.do_env_exists
                0x0000000017814504       0x64 common/built-in.o
 .text.do_env_save
                0x0000000017814568       0x2c common/built-in.o
 .text.do_env   0x0000000017814594       0x68 common/built-in.o
 .text.env_print
                0x00000000178145fc       0xc0 common/built-in.o
 .text.do_env_print
                0x00000000178146bc       0xc4 common/built-in.o
 .text.do_env_import
                0x0000000017814780      0x284 common/built-in.o
 .text.do_env_default
                0x0000000017814a04       0xa8 common/built-in.o
 .text._do_env_set.isra.0
                0x0000000017814aac      0x1bc common/built-in.o
 .text.do_env_set
                0x0000000017814c68       0x20 common/built-in.o
 .text.get_env_id
                0x0000000017814c88       0x10 common/built-in.o
                0x0000000017814c88                get_env_id
 .text.setenv   0x0000000017814c98       0x60 common/built-in.o
                0x0000000017814c98                setenv
 .text.setenv_ulong
                0x0000000017814cf8       0x20 common/built-in.o
                0x0000000017814cf8                setenv_ulong
 .text.setenv_hex
                0x0000000017814d18       0x34 common/built-in.o
                0x0000000017814d18                setenv_hex
 .text.do_env_export
                0x0000000017814d4c      0x258 common/built-in.o
 .text.envmatch
                0x0000000017814fa4       0x6c common/built-in.o
                0x0000000017814fa4                envmatch
 .text.getenv_f
                0x0000000017815010       0xc0 common/built-in.o
                0x0000000017815010                getenv_f
 .text.getenv   0x00000000178150d0       0x78 common/built-in.o
                0x00000000178150d0                getenv
 .text.getenv_hex
                0x0000000017815148       0x3c common/built-in.o
                0x0000000017815148                getenv_hex
 .text.getenv_ulong
                0x0000000017815184       0x30 common/built-in.o
                0x0000000017815184                getenv_ulong
 .text.do_env_edit.part.2
                0x00000000178151b4       0xa0 common/built-in.o
 .text.do_env_edit
                0x0000000017815254       0x2c common/built-in.o
 .text.env_get_char_spec
                0x0000000017815280        0xc common/built-in.o
                0x0000000017815280                env_get_char_spec
 .text.env_get_addr
                0x000000001781528c       0x20 common/built-in.o
                0x000000001781528c                env_get_addr
 .text.env_get_char_memory
                0x00000000178152ac       0x10 common/built-in.o
                0x00000000178152ac                env_get_char_memory
 .text.env_get_char
                0x00000000178152bc       0x30 common/built-in.o
                0x00000000178152bc                env_get_char
 .text.getenv_yesno
                0x00000000178152ec       0x40 common/built-in.o
                0x00000000178152ec                getenv_yesno
 .text.getenv_default
                0x000000001781532c       0x30 common/built-in.o
                0x000000001781532c                getenv_default
 .text.set_default_env
                0x000000001781535c       0xc0 common/built-in.o
                0x000000001781535c                set_default_env
 .text.set_default_vars
                0x000000001781541c       0x38 common/built-in.o
                0x000000001781541c                set_default_vars
 .text.env_import
                0x0000000017815454       0xdc common/built-in.o
                0x0000000017815454                env_import
 .text.env_export
                0x0000000017815530       0xa0 common/built-in.o
                0x0000000017815530                env_export
 .text.env_relocate
                0x00000000178155d0       0x2c common/built-in.o
                0x00000000178155d0                env_relocate
 .text.env_complete
                0x00000000178155fc       0xf0 common/built-in.o
                0x00000000178155fc                env_complete
 .text.console_setfile
                0x00000000178156ec       0xc0 common/built-in.o
 .text.putc     0x00000000178157ac       0x34 common/built-in.o
                0x00000000178157ac                putc
 .text.puts     0x00000000178157e0       0x34 common/built-in.o
                0x00000000178157e0                puts
 .text.printf   0x0000000017815814       0x40 common/built-in.o
                0x0000000017815814                printf
 .text.fgetc    0x0000000017815854       0x24 common/built-in.o
                0x0000000017815854                fgetc
 .text.getc     0x0000000017815878       0x24 common/built-in.o
                0x0000000017815878                getc
 .text.ftstc    0x000000001781589c       0x24 common/built-in.o
                0x000000001781589c                ftstc
 .text.tstc     0x00000000178158c0       0x24 common/built-in.o
                0x00000000178158c0                tstc
 .text.vprintf  0x00000000178158e4       0x30 common/built-in.o
                0x00000000178158e4                vprintf
 .text.ctrlc    0x0000000017815914       0x58 common/built-in.o
                0x0000000017815914                ctrlc
 .text.confirm_yesno
                0x000000001781596c       0xd4 common/built-in.o
                0x000000001781596c                confirm_yesno
 .text.had_ctrlc
                0x0000000017815a40       0x10 common/built-in.o
                0x0000000017815a40                had_ctrlc
 .text.clear_ctrlc
                0x0000000017815a50       0x14 common/built-in.o
                0x0000000017815a50                clear_ctrlc
 .text.search_device
                0x0000000017815a64       0x28 common/built-in.o
                0x0000000017815a64                search_device
 .text.console_assign
                0x0000000017815a8c       0x48 common/built-in.o
                0x0000000017815a8c                console_assign
 .text.on_console
                0x0000000017815ad4       0xb8 common/built-in.o
 .text.console_init_f
                0x0000000017815b8c       0x10 common/built-in.o
                0x0000000017815b8c                console_init_f
 .text.stdio_print_current_devices
                0x0000000017815b9c       0xb0 common/built-in.o
                0x0000000017815b9c                stdio_print_current_devices
 .text.console_init_r
                0x0000000017815c4c       0xd8 common/built-in.o
                0x0000000017815c4c                console_init_r
 .text.sbrk     0x0000000017815d24       0x6c common/built-in.o
                0x0000000017815d24                sbrk
 .text.mem_malloc_init
                0x0000000017815d90       0x34 common/built-in.o
                0x0000000017815d90                mem_malloc_init
 .text.malloc_trim
                0x0000000017815dc4       0xcc common/built-in.o
                0x0000000017815dc4                malloc_trim
 .text.free     0x0000000017815e90      0x24c common/built-in.o
                0x0000000017815e90                free
 .text.malloc   0x00000000178160dc      0x638 common/built-in.o
                0x00000000178160dc                malloc
 .text.calloc   0x0000000017816714      0x144 common/built-in.o
                0x0000000017816714                calloc
 .text.realloc  0x0000000017816858      0x4e0 common/built-in.o
                0x0000000017816858                realloc
 .text.memalign
                0x0000000017816d38      0x10c common/built-in.o
                0x0000000017816d38                memalign
 .text.initf_malloc
                0x0000000017816e44       0x18 common/built-in.o
                0x0000000017816e44                initf_malloc
 .text.malloc_simple
                0x0000000017816e5c       0x30 common/built-in.o
                0x0000000017816e5c                malloc_simple
 .text.on_loadaddr
                0x0000000017816e8c       0x38 common/built-in.o
 .text.image_check_hcrc
                0x0000000017816ec4       0x4c common/built-in.o
                0x0000000017816ec4                image_check_hcrc
 .text.image_check_dcrc
                0x0000000017816f10       0x38 common/built-in.o
                0x0000000017816f10                image_check_dcrc
 .text.image_multi_count
                0x0000000017816f48       0x1c common/built-in.o
                0x0000000017816f48                image_multi_count
 .text.image_multi_getimg
                0x0000000017816f64       0x80 common/built-in.o
                0x0000000017816f64                image_multi_getimg
 .text.getenv_bootm_low
                0x0000000017816fe4       0x30 common/built-in.o
                0x0000000017816fe4                getenv_bootm_low
 .text.getenv_bootm_size
                0x0000000017817014       0x5c common/built-in.o
                0x0000000017817014                getenv_bootm_size
 .text.getenv_bootm_mapsize
                0x0000000017817070       0x30 common/built-in.o
                0x0000000017817070                getenv_bootm_mapsize
 .text.memmove_wd
                0x00000000178170a0        0xc common/built-in.o
                0x00000000178170a0                memmove_wd
 .text.genimg_print_size
                0x00000000178170ac       0x30 common/built-in.o
                0x00000000178170ac                genimg_print_size
 .text.get_table_entry
                0x00000000178170dc       0x24 common/built-in.o
                0x00000000178170dc                get_table_entry
 .text.get_table_entry_name
                0x0000000017817100       0x20 common/built-in.o
                0x0000000017817100                get_table_entry_name
 .text.genimg_get_os_name
                0x0000000017817120       0x18 common/built-in.o
                0x0000000017817120                genimg_get_os_name
 .text.genimg_get_arch_name
                0x0000000017817138       0x18 common/built-in.o
                0x0000000017817138                genimg_get_arch_name
 .text.genimg_get_type_name
                0x0000000017817150       0x18 common/built-in.o
                0x0000000017817150                genimg_get_type_name
 .text.genimg_get_comp_name
                0x0000000017817168       0x18 common/built-in.o
                0x0000000017817168                genimg_get_comp_name
 .text.image_print_contents
                0x0000000017817180      0x178 common/built-in.o
                0x0000000017817180                image_print_contents
 .text.genimg_get_kernel_addr_fit
                0x00000000178172f8       0x24 common/built-in.o
                0x00000000178172f8                genimg_get_kernel_addr_fit
 .text.genimg_get_format
                0x000000001781731c       0x50 common/built-in.o
                0x000000001781731c                genimg_get_format
 .text.genimg_get_image
                0x000000001781736c        0x4 common/built-in.o
                0x000000001781736c                genimg_get_image
 .text.genimg_has_config
                0x0000000017817370        0x8 common/built-in.o
                0x0000000017817370                genimg_has_config
 .text.boot_get_ramdisk
                0x0000000017817378      0x2a8 common/built-in.o
                0x0000000017817378                boot_get_ramdisk
 .text.boot_ramdisk_high
                0x0000000017817620      0x13c common/built-in.o
                0x0000000017817620                boot_ramdisk_high
 .text.boot_get_setup
                0x000000001781775c        0x8 common/built-in.o
                0x000000001781775c                boot_get_setup
 .text.image_setup_linux
                0x0000000017817764       0x8c common/built-in.o
                0x0000000017817764                image_setup_linux
 .text.android_image_get_kernel
                0x00000000178177f0      0x164 common/built-in.o
                0x00000000178177f0                android_image_get_kernel
 .text.android_image_check_header
                0x0000000017817954       0x14 common/built-in.o
                0x0000000017817954                android_image_check_header
 .text.android_image_get_end
                0x0000000017817968       0x4c common/built-in.o
                0x0000000017817968                android_image_get_end
 .text.android_image_get_kload
                0x00000000178179b4       0x20 common/built-in.o
                0x00000000178179b4                android_image_get_kload
 .text.android_image_get_ramdisk
                0x00000000178179d4       0x7c common/built-in.o
                0x00000000178179d4                android_image_get_ramdisk
 .text.fdt_error
                0x0000000017817a50       0x2c common/built-in.o
 .text.boot_fdt_add_mem_rsv_regions
                0x0000000017817a7c       0x88 common/built-in.o
                0x0000000017817a7c                boot_fdt_add_mem_rsv_regions
 .text.boot_relocate_fdt
                0x0000000017817b04      0x198 common/built-in.o
                0x0000000017817b04                boot_relocate_fdt
 .text.boot_get_fdt
                0x0000000017817c9c      0x2ac common/built-in.o
                0x0000000017817c9c                boot_get_fdt
 .text.ft_verify_fdt
                0x0000000017817f48        0x8 common/built-in.o
                0x0000000017817f48                ft_verify_fdt
 .text.image_setup_libfdt
                0x0000000017817f50      0x100 common/built-in.o
                0x0000000017817f50                image_setup_libfdt
 .text.get_effective_memsize
                0x0000000017818050        0x8 common/built-in.o
                0x0000000017818050                get_effective_memsize
 .text.stdio_serial_tstc
                0x0000000017818058        0x4 common/built-in.o
 .text.stdio_serial_getc
                0x000000001781805c        0x4 common/built-in.o
 .text.stdio_serial_puts
                0x0000000017818060        0x8 common/built-in.o
 .text.stdio_serial_putc
                0x0000000017818068        0x8 common/built-in.o
 .text.stdio_get_list
                0x0000000017818070        0xc common/built-in.o
                0x0000000017818070                stdio_get_list
 .text.stdio_get_by_name
                0x000000001781807c       0x5c common/built-in.o
                0x000000001781807c                stdio_get_by_name
 .text.stdio_clone
                0x00000000178180d8       0x38 common/built-in.o
                0x00000000178180d8                stdio_clone
 .text.stdio_register_dev
                0x0000000017818110       0x50 common/built-in.o
                0x0000000017818110                stdio_register_dev
 .text.stdio_register
                0x0000000017818160        0x8 common/built-in.o
                0x0000000017818160                stdio_register
 .text.stdio_init_tables
                0x0000000017818168       0x1c common/built-in.o
                0x0000000017818168                stdio_init_tables
 .text.stdio_add_devices
                0x0000000017818184       0x7c common/built-in.o
                0x0000000017818184                stdio_add_devices
 .text.run_command
                0x0000000017818200       0x10 common/built-in.o
                0x0000000017818200                run_command
 .text.run_command_list
                0x0000000017818210       0x5c common/built-in.o
                0x0000000017818210                run_command_list
 .text.do_run   0x000000001781826c       0x78 common/built-in.o
                0x000000001781826c                do_run
 .text.cli_loop
                0x00000000178182e4        0xc common/built-in.o
                0x00000000178182e4                cli_loop
 .text.cli_init
                0x00000000178182f0        0x4 common/built-in.o
                0x00000000178182f0                cli_init
 .text.delete_char.part.0
                0x00000000178182f4       0xd0 common/built-in.o
 .text.cread_add_char
                0x00000000178183c4       0xe8 common/built-in.o
 .text.cli_readline_into_buffer
                0x00000000178184ac      0x9c0 common/built-in.o
                0x00000000178184ac                cli_readline_into_buffer
 .text.cli_readline
                0x0000000017818e6c       0x14 common/built-in.o
                0x0000000017818e6c                cli_readline
 .text.find_cmd_tbl
                0x0000000017818e80       0xa4 common/built-in.o
                0x0000000017818e80                find_cmd_tbl
 .text.find_cmd
                0x0000000017818f24       0x28 common/built-in.o
                0x0000000017818f24                find_cmd
 .text.cmd_usage
                0x0000000017818f4c       0x5c common/built-in.o
                0x0000000017818f4c                cmd_usage
 .text._do_help
                0x0000000017818fa8      0x178 common/built-in.o
                0x0000000017818fa8                _do_help
 .text.var_complete
                0x0000000017819120       0x84 common/built-in.o
                0x0000000017819120                var_complete
 .text.cmd_auto_complete
                0x00000000178191a4      0x4b4 common/built-in.o
                0x00000000178191a4                cmd_auto_complete
 .text.cmd_get_data_size
                0x0000000017819658       0x5c common/built-in.o
                0x0000000017819658                cmd_get_data_size
 .text.cmd_process
                0x00000000178196b4       0xec common/built-in.o
                0x00000000178196b4                cmd_process
 .text.cmd_process_error
                0x00000000178197a0       0x30 common/built-in.o
                0x00000000178197a0                cmd_process_error
 .text.hex1_bin
                0x00000000178197d0       0x40 common/built-in.o
 .text.hex2_bin
                0x0000000017819810       0x38 common/built-in.o
 .text.srec_decode
                0x0000000017819848      0x254 common/built-in.o
                0x0000000017819848                srec_decode
 .text.CYGACC_COMM_IF_GETC_TIMEOUT.isra.0
                0x0000000017819a9c       0x5c common/built-in.o
 .text.xyzModem_flush
                0x0000000017819af8       0x1c common/built-in.o
 .text.xyzModem_get_hdr
                0x0000000017819b14      0x230 common/built-in.o
 .text.xyzModem_stream_open
                0x0000000017819d44      0x224 common/built-in.o
                0x0000000017819d44                xyzModem_stream_open
 .text.xyzModem_stream_read
                0x0000000017819f68      0x254 common/built-in.o
                0x0000000017819f68                xyzModem_stream_read
 .text.xyzModem_stream_close
                0x000000001781a1bc       0x54 common/built-in.o
                0x000000001781a1bc                xyzModem_stream_close
 .text.xyzModem_stream_terminate
                0x000000001781a210       0x94 common/built-in.o
                0x000000001781a210                xyzModem_stream_terminate
 .text.xyzModem_error
                0x000000001781a2a4       0x20 common/built-in.o
                0x000000001781a2a4                xyzModem_error
 .text.common_diskboot
                0x000000001781a2c4      0x23c common/built-in.o
                0x000000001781a2c4                common_diskboot
 .text.get_dev_hwpart
                0x000000001781a500       0xa8 disk/built-in.o
 .text.dev_print
                0x000000001781a5a8      0x25c disk/built-in.o
                0x000000001781a5a8                dev_print
 .text.init_part
                0x000000001781a804       0x20 disk/built-in.o
                0x000000001781a804                init_part
 .text.print_part
                0x000000001781a824       0xf4 disk/built-in.o
                0x000000001781a824                print_part
 .text.get_partition_info
                0x000000001781a918       0x2c disk/built-in.o
                0x000000001781a918                get_partition_info
 .text.get_device
                0x000000001781a944      0x114 disk/built-in.o
                0x000000001781a944                get_device
 .text.get_device_and_partition
                0x000000001781aa58      0x440 disk/built-in.o
                0x000000001781aa58                get_device_and_partition
 .text.test_block_type
                0x000000001781ae98       0x84 disk/built-in.o
 .text.print_partition_extended
                0x000000001781af1c      0x278 disk/built-in.o
 .text.get_partition_info_extended.constprop.1
                0x000000001781b194      0x300 disk/built-in.o
 .text.test_part_dos
                0x000000001781b494       0x64 disk/built-in.o
                0x000000001781b494                test_part_dos
 .text.print_part_dos
                0x000000001781b4f8       0x34 disk/built-in.o
                0x000000001781b4f8                print_part_dos
 .text.get_partition_info_dos
                0x000000001781b52c       0x20 disk/built-in.o
                0x000000001781b52c                get_partition_info_dos
 .text.alloc_priv
                0x000000001781b54c       0x48 drivers/built-in.o
 .text.device_bind
                0x000000001781b594      0x2d8 drivers/built-in.o
                0x000000001781b594                device_bind
 .text.device_bind_by_name
                0x000000001781b86c       0x60 drivers/built-in.o
                0x000000001781b86c                device_bind_by_name
 .text.device_probe
                0x000000001781b8cc        0x8 drivers/built-in.o
                0x000000001781b8cc                device_probe
 .text.device_probe_child
                0x000000001781b8d4      0x250 drivers/built-in.o
                0x000000001781b8d4                device_probe_child
 .text.dev_get_platdata
                0x000000001781bb24       0x34 drivers/built-in.o
                0x000000001781bb24                dev_get_platdata
 .text.dev_get_priv
                0x000000001781bb58       0x34 drivers/built-in.o
                0x000000001781bb58                dev_get_priv
 .text.lists_driver_lookup_name
                0x000000001781bb8c       0x4c drivers/built-in.o
                0x000000001781bb8c                lists_driver_lookup_name
 .text.lists_uclass_lookup
                0x000000001781bbd8       0x3c drivers/built-in.o
                0x000000001781bbd8                lists_uclass_lookup
 .text.lists_bind_drivers
                0x000000001781bc14       0x88 drivers/built-in.o
                0x000000001781bc14                lists_bind_drivers
 .text.dm_root  0x000000001781bc9c       0x2c drivers/built-in.o
                0x000000001781bc9c                dm_root
 .text.dm_init  0x000000001781bcc8       0x58 drivers/built-in.o
                0x000000001781bcc8                dm_init
 .text.dm_scan_platdata
                0x000000001781bd20       0x2c drivers/built-in.o
                0x000000001781bd20                dm_scan_platdata
 .text.dm_scan_other
                0x000000001781bd4c        0x8 drivers/built-in.o
                0x000000001781bd4c                dm_scan_other
 .text.dm_init_and_scan
                0x000000001781bd54       0x30 drivers/built-in.o
                0x000000001781bd54                dm_init_and_scan
 .text.uclass_find
                0x000000001781bd84       0x4c drivers/built-in.o
                0x000000001781bd84                uclass_find
 .text.uclass_get
                0x000000001781bdd0      0x124 drivers/built-in.o
                0x000000001781bdd0                uclass_get
 .text.uclass_find_device
                0x000000001781bef4       0x74 drivers/built-in.o
                0x000000001781bef4                uclass_find_device
 .text.uclass_find_device_by_seq
                0x000000001781bf68       0x7c drivers/built-in.o
                0x000000001781bf68                uclass_find_device_by_seq
 .text.uclass_get_device_tail
                0x000000001781bfe4       0x2c drivers/built-in.o
                0x000000001781bfe4                uclass_get_device_tail
 .text.uclass_get_device
                0x000000001781c010       0x30 drivers/built-in.o
                0x000000001781c010                uclass_get_device
 .text.uclass_bind_device
                0x000000001781c040       0xa4 drivers/built-in.o
                0x000000001781c040                uclass_bind_device
 .text.uclass_unbind_device
                0x000000001781c0e4       0x4c drivers/built-in.o
                0x000000001781c0e4                uclass_unbind_device
 .text.uclass_resolve_seq
                0x000000001781c130       0xb0 drivers/built-in.o
                0x000000001781c130                uclass_resolve_seq
 .text.uclass_pre_probe_device
                0x000000001781c1e0       0x64 drivers/built-in.o
                0x000000001781c1e0                uclass_pre_probe_device
 .text.uclass_post_probe_device
                0x000000001781c244       0x20 drivers/built-in.o
                0x000000001781c244                uclass_post_probe_device
 .text.uclass_pre_remove_device
                0x000000001781c264       0x5c drivers/built-in.o
                0x000000001781c264                uclass_pre_remove_device
 .text.dm_warn  0x000000001781c2c0       0x28 drivers/built-in.o
                0x000000001781c2c0                dm_warn
 .text.device_free
                0x000000001781c2e8       0x90 drivers/built-in.o
                0x000000001781c2e8                device_free
 .text.device_remove
                0x000000001781c378      0x114 drivers/built-in.o
                0x000000001781c378                device_remove
 .text.device_remove_children
                0x000000001781c48c       0x48 drivers/built-in.o
                0x000000001781c48c                device_remove_children
 .text.show_devices
                0x000000001781c4d4       0xfc drivers/built-in.o
 .text.dm_dump_all
                0x000000001781c5d0       0x3c drivers/built-in.o
                0x000000001781c5d0                dm_dump_all
 .text.dm_dump_uclass
                0x000000001781c60c       0xdc drivers/built-in.o
                0x000000001781c60c                dm_dump_uclass
 .text.ahci_exec_ata_cmd
                0x000000001781c6e8      0x260 drivers/built-in.o
 .text.dwc_ahsata_rw_cmd_ext
                0x000000001781c948       0xe0 drivers/built-in.o
 .text.dwc_ahsata_rw_cmd
                0x000000001781ca28       0xc8 drivers/built-in.o
 .text.init_sata
                0x000000001781caf0      0x54c drivers/built-in.o
                0x000000001781caf0                init_sata
 .text.reset_sata
                0x000000001781d03c       0x64 drivers/built-in.o
                0x000000001781d03c                reset_sata
 .text.dwc_ahsata_flush_cache
                0x000000001781d0a0       0x7c drivers/built-in.o
                0x000000001781d0a0                dwc_ahsata_flush_cache
 .text.dwc_ahsata_flush_cache_ext
                0x000000001781d11c       0x7c drivers/built-in.o
                0x000000001781d11c                dwc_ahsata_flush_cache_ext
 .text.ata_low_level_rw_lba48
                0x000000001781d198       0x84 drivers/built-in.o
                0x000000001781d198                ata_low_level_rw_lba48
 .text.ata_low_level_rw_lba28
                0x000000001781d21c       0x78 drivers/built-in.o
                0x000000001781d21c                ata_low_level_rw_lba28
 .text.sata_read
                0x000000001781d294       0x40 drivers/built-in.o
                0x000000001781d294                sata_read
 .text.sata_write
                0x000000001781d2d4       0x7c drivers/built-in.o
                0x000000001781d2d4                sata_write
 .text.scan_sata
                0x000000001781d350      0x390 drivers/built-in.o
                0x000000001781d350                scan_sata
 .text.ata_id_n_sectors
                0x000000001781d6e0       0x7c drivers/built-in.o
                0x000000001781d6e0                ata_id_n_sectors
 .text.ata_id_c_string
                0x000000001781d75c       0x78 drivers/built-in.o
                0x000000001781d75c                ata_id_c_string
 .text.ata_swap_buf_le16
                0x000000001781d7d4        0x4 drivers/built-in.o
                0x000000001781d7d4                ata_swap_buf_le16
 .text.finish_access
                0x000000001781d7d8       0x2c drivers/built-in.o
 .text.set_timing
                0x000000001781d804       0xb4 drivers/built-in.o
 .text.prepare_access
                0x000000001781d8b8       0x88 drivers/built-in.o
 .text.fuse_bank_physical
                0x000000001781d940       0x64 drivers/built-in.o
                0x000000001781d940                fuse_bank_physical
 .text.fuse_read
                0x000000001781d9a4       0x74 drivers/built-in.o
                0x000000001781d9a4                fuse_read
 .text.fuse_sense
                0x000000001781da18       0xac drivers/built-in.o
                0x000000001781da18                fuse_sense
 .text.fuse_prog
                0x000000001781dac4       0xa8 drivers/built-in.o
                0x000000001781dac4                fuse_prog
 .text.fuse_override
                0x000000001781db6c       0x6c drivers/built-in.o
                0x000000001781db6c                fuse_override
 .text.dfu_write_buffer_drain
                0x000000001781dbd8       0xa8 drivers/built-in.o
 .text.dfu_free_buf
                0x000000001781dc80       0x20 drivers/built-in.o
                0x000000001781dc80                dfu_free_buf
 .text.dfu_get_buf_size
                0x000000001781dca0       0x10 drivers/built-in.o
                0x000000001781dca0                dfu_get_buf_size
 .text.dfu_get_buf
                0x000000001781dcb0       0xb8 drivers/built-in.o
                0x000000001781dcb0                dfu_get_buf
 .text.dfu_write_transaction_cleanup
                0x000000001781dd68       0x44 drivers/built-in.o
                0x000000001781dd68                dfu_write_transaction_cleanup
 .text.dfu_flush
                0x000000001781ddac       0x64 drivers/built-in.o
                0x000000001781ddac                dfu_flush
 .text.dfu_write
                0x000000001781de10      0x184 drivers/built-in.o
                0x000000001781de10                dfu_write
 .text.dfu_read
                0x000000001781df94      0x26c drivers/built-in.o
                0x000000001781df94                dfu_read
 .text.dfu_free_entities
                0x000000001781e200       0x9c drivers/built-in.o
                0x000000001781e200                dfu_free_entities
 .text.dfu_config_entities
                0x000000001781e29c      0x270 drivers/built-in.o
                0x000000001781e29c                dfu_config_entities
 .text.dfu_init_env_entities
                0x000000001781e50c       0x90 drivers/built-in.o
                0x000000001781e50c                dfu_init_env_entities
 .text.dfu_get_dev_type
                0x000000001781e59c       0x3c drivers/built-in.o
                0x000000001781e59c                dfu_get_dev_type
 .text.dfu_get_layout
                0x000000001781e5d8       0x3c drivers/built-in.o
                0x000000001781e5d8                dfu_get_layout
 .text.dfu_show_entities
                0x000000001781e614       0x74 drivers/built-in.o
                0x000000001781e614                dfu_show_entities
 .text.dfu_get_alt_number
                0x000000001781e688       0x10 drivers/built-in.o
                0x000000001781e688                dfu_get_alt_number
 .text.dfu_get_entity
                0x000000001781e698       0x40 drivers/built-in.o
                0x000000001781e698                dfu_get_entity
 .text.mmc_file_op
                0x000000001781e6d8      0x19c drivers/built-in.o
 .text.dfu_free_entity_mmc
                0x000000001781e874       0x28 drivers/built-in.o
                0x000000001781e874                dfu_free_entity_mmc
 .text.mmc_access_part.isra.0
                0x000000001781e89c       0x68 drivers/built-in.o
 .text.mmc_block_op
                0x000000001781e904      0x1ec drivers/built-in.o
 .text.dfu_write_medium_mmc
                0x000000001781eaf0       0xb8 drivers/built-in.o
                0x000000001781eaf0                dfu_write_medium_mmc
 .text.dfu_flush_medium_mmc
                0x000000001781eba8       0x48 drivers/built-in.o
                0x000000001781eba8                dfu_flush_medium_mmc
 .text.dfu_get_medium_size_mmc
                0x000000001781ebf0       0x90 drivers/built-in.o
                0x000000001781ebf0                dfu_get_medium_size_mmc
 .text.dfu_read_medium_mmc
                0x000000001781ec80       0xe4 drivers/built-in.o
                0x000000001781ec80                dfu_read_medium_mmc
 .text.dfu_fill_entity_mmc
                0x000000001781ed64      0x320 drivers/built-in.o
                0x000000001781ed64                dfu_fill_entity_mmc
 .text.dfu_get_medium_size_sf
                0x000000001781f084        0x8 drivers/built-in.o
 .text.dfu_read_medium_sf
                0x000000001781f08c       0x28 drivers/built-in.o
 .text.dfu_flush_medium_sf
                0x000000001781f0b4        0x8 drivers/built-in.o
 .text.dfu_polltimeout_sf
                0x000000001781f0bc        0x8 drivers/built-in.o
 .text.dfu_free_entity_sf
                0x000000001781f0c4        0x8 drivers/built-in.o
 .text.dfu_write_medium_sf
                0x000000001781f0cc       0x98 drivers/built-in.o
 .text.dfu_fill_entity_sf
                0x000000001781f164      0x2d8 drivers/built-in.o
                0x000000001781f164                dfu_fill_entity_sf
 .text.reset_cpu
                0x000000001781f43c       0x2c drivers/built-in.o
                0x000000001781f43c                reset_cpu
 .text.thermal_get_temp
                0x000000001781f468       0x20 drivers/built-in.o
                0x000000001781f468                thermal_get_temp
 .text.read_cpu_temperature
                0x000000001781f488       0xf0 drivers/built-in.o
 .text.imx_thermal_get_temp
                0x000000001781f578       0x64 drivers/built-in.o
                0x000000001781f578                imx_thermal_get_temp
 .text.imx_thermal_probe
                0x000000001781f5dc       0xc8 drivers/built-in.o
 .text.gpio_set_value
                0x000000001781f6a4       0x44 drivers/gpio/built-in.o
                0x000000001781f6a4                gpio_set_value
 .text.gpio_get_value
                0x000000001781f6e8       0x34 drivers/gpio/built-in.o
                0x000000001781f6e8                gpio_get_value
 .text.gpio_request
                0x000000001781f71c       0x10 drivers/gpio/built-in.o
                0x000000001781f71c                gpio_request
 .text.gpio_free
                0x000000001781f72c        0x8 drivers/gpio/built-in.o
                0x000000001781f72c                gpio_free
 .text.gpio_direction_input
                0x000000001781f734       0x3c drivers/gpio/built-in.o
                0x000000001781f734                gpio_direction_input
 .text.gpio_direction_output
                0x000000001781f770       0x50 drivers/gpio/built-in.o
                0x000000001781f770                gpio_direction_output
 .text.i2c_get_adapter
                0x000000001781f7c0       0x64 drivers/i2c/built-in.o
                0x000000001781f7c0                i2c_get_adapter
 .text.i2c_init_bus
                0x000000001781f824       0x90 drivers/i2c/built-in.o
 .text.i2c_get_bus_num
                0x000000001781f8b4        0x8 drivers/i2c/built-in.o
                0x000000001781f8b4                i2c_get_bus_num
 .text.i2c_set_bus_num
                0x000000001781f8bc       0xb8 drivers/i2c/built-in.o
                0x000000001781f8bc                i2c_set_bus_num
 .text.i2c_init_all
                0x000000001781f974       0x14 drivers/i2c/built-in.o
                0x000000001781f974                i2c_init_all
 .text.i2c_probe
                0x000000001781f988       0x2c drivers/i2c/built-in.o
                0x000000001781f988                i2c_probe
 .text.i2c_read
                0x000000001781f9b4       0x4c drivers/i2c/built-in.o
                0x000000001781f9b4                i2c_read
 .text.i2c_write
                0x000000001781fa00       0x4c drivers/i2c/built-in.o
                0x000000001781fa00                i2c_write
 .text.i2c_set_bus_speed
                0x000000001781fa4c       0x64 drivers/i2c/built-in.o
                0x000000001781fa4c                i2c_set_bus_speed
 .text.i2c_get_bus_speed
                0x000000001781fab0       0x14 drivers/i2c/built-in.o
                0x000000001781fab0                i2c_get_bus_speed
 .text.i2c_init
                0x000000001781fac4       0x14 drivers/i2c/built-in.o
                0x000000001781fac4                i2c_init
 .text.wait_for_sr_state
                0x000000001781fad8      0x100 drivers/i2c/built-in.o
 .text.tx_byte  0x000000001781fbd8       0x50 drivers/i2c/built-in.o
 .text.bus_i2c_set_bus_speed
                0x000000001781fc28       0xb4 drivers/i2c/built-in.o
 .text.mxc_i2c_set_bus_speed
                0x000000001781fcdc       0x18 drivers/i2c/built-in.o
 .text.i2c_imx_stop
                0x000000001781fcf4       0x50 drivers/i2c/built-in.o
 .text.__i2c_force_reset_slave
                0x000000001781fd44        0x4 drivers/i2c/built-in.o
                0x000000001781fd44                __i2c_force_reset_slave
                0x000000001781fd44                i2c_force_reset_slave
 .text.i2c_idle_bus
                0x000000001781fd48       0x24 drivers/i2c/built-in.o
                0x000000001781fd48                i2c_idle_bus
 .text.i2c_init_transfer
                0x000000001781fd6c      0x230 drivers/i2c/built-in.o
 .text.mxc_i2c_probe
                0x000000001781ff9c       0x40 drivers/i2c/built-in.o
 .text.mxc_i2c_read
                0x000000001781ffdc      0x184 drivers/i2c/built-in.o
 .text.mxc_i2c_write
                0x0000000017820160       0x6c drivers/i2c/built-in.o
 .text.bus_i2c_init
                0x00000000178201cc       0x50 drivers/i2c/built-in.o
                0x00000000178201cc                bus_i2c_init
 .text.mxc_i2c_init
                0x000000001782021c       0x1c drivers/i2c/built-in.o
 .text.esdhc_getcd
                0x0000000017820238       0x40 drivers/mmc/built-in.o
 .text.esdhc_set_ios
                0x0000000017820278      0x124 drivers/mmc/built-in.o
 .text.esdhc_init
                0x000000001782039c       0x88 drivers/mmc/built-in.o
 .text.check_and_invalidate_dcache_range.isra.0
                0x0000000017820424       0x30 drivers/mmc/built-in.o
 .text.esdhc_send_cmd
                0x0000000017820454      0x3d4 drivers/mmc/built-in.o
 .text.fsl_esdhc_initialize
                0x0000000017820828      0x160 drivers/mmc/built-in.o
                0x0000000017820828                fsl_esdhc_initialize
 .text.fsl_esdhc_mmc_init
                0x0000000017820988       0x34 drivers/mmc/built-in.o
                0x0000000017820988                fsl_esdhc_mmc_init
 .text.mmc_set_ios
                0x00000000178209bc       0x18 drivers/mmc/built-in.o
 .text.mmc_set_capacity
                0x00000000178209d4       0xa8 drivers/mmc/built-in.o
 .text.board_mmc_getwp
                0x0000000017820a7c        0x8 drivers/mmc/built-in.o
                0x0000000017820a7c                board_mmc_getwp
 .text.mmc_getwp
                0x0000000017820a84       0x3c drivers/mmc/built-in.o
                0x0000000017820a84                mmc_getwp
 .text.mmc_send_cmd
                0x0000000017820ac0       0x10 drivers/mmc/built-in.o
                0x0000000017820ac0                mmc_send_cmd
 .text.mmc_send_ext_csd
                0x0000000017820ad0       0x4c drivers/mmc/built-in.o
 .text.mmc_go_idle
                0x0000000017820b1c       0x4c drivers/mmc/built-in.o
 .text.mmc_send_op_cond_iter
                0x0000000017820b68       0x78 drivers/mmc/built-in.o
 .text.mmc_send_status
                0x0000000017820be0       0xe0 drivers/mmc/built-in.o
                0x0000000017820be0                mmc_send_status
 .text.mmc_switch.isra.0
                0x0000000017820cc0       0x54 drivers/mmc/built-in.o
 .text.mmc_set_blocklen
                0x0000000017820d14       0x40 drivers/mmc/built-in.o
                0x0000000017820d14                mmc_set_blocklen
 .text.find_mmc_device
                0x0000000017820d54       0x4c drivers/mmc/built-in.o
                0x0000000017820d54                find_mmc_device
 .text.mmc_bread
                0x0000000017820da0      0x13c drivers/mmc/built-in.o
 .text.mmc_switch_part
                0x0000000017820edc       0x58 drivers/mmc/built-in.o
                0x0000000017820edc                mmc_switch_part
 .text.mmc_select_hwpart
                0x0000000017820f34       0x6c drivers/mmc/built-in.o
                0x0000000017820f34                mmc_select_hwpart
 .text.mmc_hwpart_config
                0x0000000017820fa0      0x42c drivers/mmc/built-in.o
                0x0000000017820fa0                mmc_hwpart_config
 .text.mmc_getcd
                0x00000000178213cc       0x3c drivers/mmc/built-in.o
                0x00000000178213cc                mmc_getcd
 .text.mmc_set_clock
                0x0000000017821408       0x24 drivers/mmc/built-in.o
                0x0000000017821408                mmc_set_clock
 .text.mmc_startup
                0x000000001782142c      0xc6c drivers/mmc/built-in.o
 .text.mmc_create
                0x0000000017822098       0xfc drivers/mmc/built-in.o
                0x0000000017822098                mmc_create
 .text.board_mmc_power_init
                0x0000000017822194        0x4 drivers/mmc/built-in.o
                0x0000000017822194                board_mmc_power_init
 .text.mmc_start_init
                0x0000000017822198      0x258 drivers/mmc/built-in.o
                0x0000000017822198                mmc_start_init
 .text.mmc_init
                0x00000000178223f0       0xf4 drivers/mmc/built-in.o
                0x00000000178223f0                mmc_init
 .text.mmc_get_dev
                0x00000000178224e4       0x2c drivers/mmc/built-in.o
                0x00000000178224e4                mmc_get_dev
 .text.mmc_set_dsr
                0x0000000017822510        0xc drivers/mmc/built-in.o
                0x0000000017822510                mmc_set_dsr
 .text.print_mmc_devices
                0x000000001782251c       0xc0 drivers/mmc/built-in.o
                0x000000001782251c                print_mmc_devices
 .text.get_mmc_num
                0x00000000178225dc       0x10 drivers/mmc/built-in.o
                0x00000000178225dc                get_mmc_num
 .text.mmc_initialize
                0x00000000178225ec       0x94 drivers/mmc/built-in.o
                0x00000000178225ec                mmc_initialize
 .text.mmc_berase
                0x0000000017822680      0x190 drivers/mmc/built-in.o
                0x0000000017822680                mmc_berase
 .text.mmc_bwrite
                0x0000000017822810      0x160 drivers/mmc/built-in.o
                0x0000000017822810                mmc_bwrite
 .text.mtd_arg_off
                0x0000000017822970       0x68 drivers/mtd/built-in.o
                0x0000000017822970                mtd_arg_off
 .text.mtd_arg_off_size
                0x00000000178229d8      0x11c drivers/mtd/built-in.o
                0x00000000178229d8                mtd_arg_off_size
 .text.spi_flash_probe_slave
                0x0000000017822af4      0x390 drivers/mtd/spi/built-in.o
                0x0000000017822af4                spi_flash_probe_slave
 .text.spi_flash_probe_tail
                0x0000000017822e84       0x50 drivers/mtd/spi/built-in.o
                0x0000000017822e84                spi_flash_probe_tail
 .text.spi_flash_probe
                0x0000000017822ed4       0x18 drivers/mtd/spi/built-in.o
                0x0000000017822ed4                spi_flash_probe
 .text.spi_flash_free
                0x0000000017822eec       0x1c drivers/mtd/spi/built-in.o
                0x0000000017822eec                spi_flash_free
 .text.spi_flash_read_write
                0x0000000017822f08       0x74 drivers/mtd/spi/built-in.o
 .text.spi_flash_cmd_read
                0x0000000017822f7c       0x1c drivers/mtd/spi/built-in.o
                0x0000000017822f7c                spi_flash_cmd_read
 .text.spi_flash_cmd
                0x0000000017822f98       0x28 drivers/mtd/spi/built-in.o
                0x0000000017822f98                spi_flash_cmd
 .text.spi_flash_cmd_write
                0x0000000017822fc0       0x20 drivers/mtd/spi/built-in.o
                0x0000000017822fc0                spi_flash_cmd_write
 .text.spi_flash_poll_status
                0x0000000017822fe0       0xd4 drivers/mtd/spi/built-in.o
 .text.spi_flash_cmd_wait_ready
                0x00000000178230b4       0x54 drivers/mtd/spi/built-in.o
                0x00000000178230b4                spi_flash_cmd_wait_ready
 .text.sst_byte_write
                0x0000000017823108       0xa8 drivers/mtd/spi/built-in.o
 .text.spi_flash_write_common
                0x00000000178231b0       0xc4 drivers/mtd/spi/built-in.o
                0x00000000178231b0                spi_flash_write_common
 .text.spi_flash_cmd_write_status
                0x0000000017823274       0x2c drivers/mtd/spi/built-in.o
                0x0000000017823274                spi_flash_cmd_write_status
 .text.spi_flash_cmd_erase_ops
                0x00000000178232a0       0xa8 drivers/mtd/spi/built-in.o
                0x00000000178232a0                spi_flash_cmd_erase_ops
 .text.spi_flash_cmd_write_ops
                0x0000000017823348       0xb8 drivers/mtd/spi/built-in.o
                0x0000000017823348                spi_flash_cmd_write_ops
 .text.spi_flash_read_common
                0x0000000017823400       0x5c drivers/mtd/spi/built-in.o
                0x0000000017823400                spi_flash_read_common
 .text.spi_flash_copy_mmap
                0x000000001782345c        0x4 drivers/mtd/spi/built-in.o
                0x000000001782345c                spi_flash_copy_mmap
 .text.spi_flash_cmd_read_ops
                0x0000000017823460      0x13c drivers/mtd/spi/built-in.o
                0x0000000017823460                spi_flash_cmd_read_ops
 .text.sst_write_wp
                0x000000001782359c      0x164 drivers/mtd/spi/built-in.o
                0x000000001782359c                sst_write_wp
 .text.sst_write_bp
                0x0000000017823700       0x80 drivers/mtd/spi/built-in.o
                0x0000000017823700                sst_write_bp
 .text.fec_set_hwaddr
                0x0000000017823780       0x78 drivers/net/built-in.o
 .text.fec_reg_setup
                0x00000000178237f8       0x64 drivers/net/built-in.o
 .text.fec_phy_write
                0x000000001782385c       0x74 drivers/net/built-in.o
 .text.fec_phy_read
                0x00000000178238d0       0x7c drivers/net/built-in.o
 .text.fec_halt
                0x000000001782394c       0x68 drivers/net/built-in.o
 .text.fec_send
                0x00000000178239b4      0x130 drivers/net/built-in.o
 .text.fec_mii_setspeed
                0x0000000017823ae4       0x38 drivers/net/built-in.o
 .text.fec_init
                0x0000000017823b1c      0x280 drivers/net/built-in.o
 .text.fec_recv
                0x0000000017823d9c      0x208 drivers/net/built-in.o
 .text.fec_probe
                0x0000000017823fa4      0x37c drivers/net/built-in.o
                0x0000000017823fa4                fec_probe
 .text.fec_get_miibus
                0x0000000017824320       0xa4 drivers/net/built-in.o
                0x0000000017824320                fec_get_miibus
 .text.fecmxc_initialize_multi
                0x00000000178243c4       0x90 drivers/net/built-in.o
                0x00000000178243c4                fecmxc_initialize_multi
 .text.fecmxc_initialize
                0x0000000017824454       0x14 drivers/net/built-in.o
                0x0000000017824454                fecmxc_initialize
 .text.genphy_shutdown
                0x0000000017824468        0x8 drivers/net/phy/built-in.o
                0x0000000017824468                genphy_shutdown
 .text.phy_device_create
                0x0000000017824470       0xe8 drivers/net/phy/built-in.o
 .text.genphy_restart_aneg
                0x0000000017824558       0x5c drivers/net/phy/built-in.o
                0x0000000017824558                genphy_restart_aneg
 .text.genphy_config_aneg
                0x00000000178245b4      0x1dc drivers/net/phy/built-in.o
                0x00000000178245b4                genphy_config_aneg
 .text.genphy_config
                0x0000000017824790       0xb4 drivers/net/phy/built-in.o
                0x0000000017824790                genphy_config
 .text.genphy_update_link
                0x0000000017824844      0x144 drivers/net/phy/built-in.o
                0x0000000017824844                genphy_update_link
 .text.genphy_parse_link
                0x0000000017824988      0x190 drivers/net/phy/built-in.o
                0x0000000017824988                genphy_parse_link
 .text.genphy_startup
                0x0000000017824b18       0x1c drivers/net/phy/built-in.o
                0x0000000017824b18                genphy_startup
 .text.phy_init
                0x0000000017824b34       0x10 drivers/net/phy/built-in.o
                0x0000000017824b34                phy_init
 .text.phy_register
                0x0000000017824b44       0x28 drivers/net/phy/built-in.o
                0x0000000017824b44                phy_register
 .text.get_phy_id
                0x0000000017824b6c       0x70 drivers/net/phy/built-in.o
                0x0000000017824b6c                get_phy_id
 .text.get_phy_device_by_mask
                0x0000000017824bdc      0x224 drivers/net/phy/built-in.o
 .text.phy_reset
                0x0000000017824e00       0xac drivers/net/phy/built-in.o
                0x0000000017824e00                phy_reset
 .text.phy_find_by_mask
                0x0000000017824eac       0x3c drivers/net/phy/built-in.o
                0x0000000017824eac                phy_find_by_mask
 .text.phy_connect_dev
                0x0000000017824ee8       0x44 drivers/net/phy/built-in.o
                0x0000000017824ee8                phy_connect_dev
 .text.phy_startup
                0x0000000017824f2c       0x1c drivers/net/phy/built-in.o
                0x0000000017824f2c                phy_startup
 .text.phy_config
                0x0000000017824f48       0x10 drivers/net/phy/built-in.o
                0x0000000017824f48                phy_config
 .text.ksz8895_startup
                0x0000000017824f58        0x8 drivers/net/phy/built-in.o
 .text.ksz90xx_startup
                0x0000000017824f60       0x60 drivers/net/phy/built-in.o
 .text.ksz8895_config
                0x0000000017824fc0       0x3c drivers/net/phy/built-in.o
                0x0000000017824fc0                ksz8895_config
 .text.ksz9031_phy_extended_write
                0x0000000017824ffc       0xa4 drivers/net/phy/built-in.o
                0x0000000017824ffc                ksz9031_phy_extended_write
 .text.ksz9031_phy_extwrite
                0x00000000178250a0       0x18 drivers/net/phy/built-in.o
 .text.ksz9031_phy_extended_read
                0x00000000178250b8       0x9c drivers/net/phy/built-in.o
                0x00000000178250b8                ksz9031_phy_extended_read
 .text.ksz9031_phy_extread
                0x0000000017825154       0x10 drivers/net/phy/built-in.o
 .text.phy_micrel_init
                0x0000000017825164       0x48 drivers/net/phy/built-in.o
                0x0000000017825164                phy_micrel_init
 .text.serial_stub_start
                0x00000000178251ac        0xc drivers/serial/built-in.o
 .text.serial_stub_stop
                0x00000000178251b8        0xc drivers/serial/built-in.o
 .text.serial_stub_putc
                0x00000000178251c4       0x10 drivers/serial/built-in.o
 .text.serial_stub_puts
                0x00000000178251d4       0x10 drivers/serial/built-in.o
 .text.serial_stub_getc
                0x00000000178251e4        0xc drivers/serial/built-in.o
                0x00000000178251e4                serial_stub_getc
 .text.serial_stub_tstc
                0x00000000178251f0        0xc drivers/serial/built-in.o
                0x00000000178251f0                serial_stub_tstc
 .text.get_current
                0x00000000178251fc       0x40 drivers/serial/built-in.o
 .text.serial_null
                0x000000001782523c        0x4 drivers/serial/built-in.o
                0x000000001782523c                jz_serial_initialize
                0x000000001782523c                bfin_serial_initialize
                0x000000001782523c                p3mx_serial_initialize
                0x000000001782523c                leon2_serial_initialize
                0x000000001782523c                leon3_serial_initialize
                0x000000001782523c                stm32_serial_initialize
                0x000000001782523c                amirix_serial_initialize
                0x000000001782523c                marvell_serial_initialize
                0x000000001782523c                cpci750_serial_initialize
                0x000000001782523c                ns16550_serial_initialize
                0x000000001782523c                asc_serial_initialize
                0x000000001782523c                altera_serial_initialize
                0x000000001782523c                sh_serial_initialize
                0x000000001782523c                oc_serial_initialize
                0x000000001782523c                mxs_auart_initialize
                0x000000001782523c                arm_dcc_initialize
                0x000000001782523c                bmw_serial_initialize
                0x000000001782523c                arc_serial_initialize
                0x000000001782523c                mcf_serial_initialize
                0x000000001782523c                lh7a40x_serial_initialize
                0x000000001782523c                evb64260_serial_initialize
                0x000000001782523c                lpc32xx_serial_initialize
                0x000000001782523c                max3100_serial_initialize
                0x000000001782523c                mpc85xx_serial_initialize
                0x000000001782523c                imx_serial_initialize
                0x000000001782523c                bfin_jtag_initialize
                0x000000001782523c                cogent_serial_initialize
                0x000000001782523c                clps7111_serial_initialize
                0x000000001782523c                ml2_serial_initialize
                0x000000001782523c                sandbox_serial_initialize
                0x000000001782523c                s3c24xx_serial_initialize
                0x000000001782523c                sconsole_serial_initialize
                0x000000001782523c                uartlite_serial_initialize
                0x000000001782523c                au1x00_serial_initialize
                0x000000001782523c                pxa_serial_initialize
                0x000000001782523c                atmel_serial_initialize
                0x000000001782523c                pl01x_serial_initialize
                0x000000001782523c                altera_jtag_serial_initialize
                0x000000001782523c                mpc512x_serial_initialize
                0x000000001782523c                s5p_serial_initialize
                0x000000001782523c                zynq_serial_initialize
                0x000000001782523c                sa1100_serial_initialize
                0x000000001782523c                mpc8260_scc_serial_initialize
                0x000000001782523c                iop480_serial_initialize
                0x000000001782523c                mpc8xx_serial_initialize
                0x000000001782523c                mpc8260_smc_serial_initialize
                0x000000001782523c                mpc5xx_serial_initialize
 .text.serial_register
                0x0000000017825240       0x18 drivers/serial/built-in.o
                0x0000000017825240                serial_register
 .text.serial_stdio_init
                0x0000000017825258       0xa4 drivers/serial/built-in.o
                0x0000000017825258                serial_stdio_init
 .text.serial_assign
                0x00000000178252fc       0x4c drivers/serial/built-in.o
                0x00000000178252fc                serial_assign
 .text.serial_initialize
                0x0000000017825348       0xd0 drivers/serial/built-in.o
                0x0000000017825348                serial_initialize
 .text.serial_init
                0x0000000017825418       0x20 drivers/serial/built-in.o
                0x0000000017825418                serial_init
 .text.serial_setbrg
                0x0000000017825438       0x14 drivers/serial/built-in.o
                0x0000000017825438                serial_setbrg
 .text.on_baudrate
                0x000000001782544c       0xec drivers/serial/built-in.o
 .text.serial_getc
                0x0000000017825538       0x14 drivers/serial/built-in.o
                0x0000000017825538                serial_getc
 .text.serial_tstc
                0x000000001782554c       0x14 drivers/serial/built-in.o
                0x000000001782554c                serial_tstc
 .text.serial_putc
                0x0000000017825560       0x1c drivers/serial/built-in.o
                0x0000000017825560                serial_putc
 .text.serial_puts
                0x000000001782557c       0x1c drivers/serial/built-in.o
                0x000000001782557c                serial_puts
 .text.default_serial_puts
                0x0000000017825598       0x30 drivers/serial/built-in.o
                0x0000000017825598                default_serial_puts
 .text.mxc_serial_getc
                0x00000000178255c8       0x24 drivers/serial/built-in.o
 .text.mxc_serial_tstc
                0x00000000178255ec       0x18 drivers/serial/built-in.o
 .text.mxc_serial_putc
                0x0000000017825604       0x28 drivers/serial/built-in.o
 .text.mxc_serial_setbrg
                0x000000001782562c       0x48 drivers/serial/built-in.o
 .text.mxc_serial_init
                0x0000000017825674       0x68 drivers/serial/built-in.o
 .text.mxc_serial_initialize
                0x00000000178256dc        0xc drivers/serial/built-in.o
                0x00000000178256dc                mxc_serial_initialize
 .text.default_serial_console
                0x00000000178256e8        0xc drivers/serial/built-in.o
                0x00000000178256e8                default_serial_console
 .text.spi_do_alloc_slave
                0x00000000178256f4       0x4c drivers/spi/built-in.o
                0x00000000178256f4                spi_do_alloc_slave
 .text.spi_cs_activate
                0x0000000017825740       0x18 drivers/spi/built-in.o
                0x0000000017825740                spi_cs_activate
 .text.spi_cs_deactivate
                0x0000000017825758       0x20 drivers/spi/built-in.o
                0x0000000017825758                spi_cs_deactivate
 .text.spi_xchg_single
                0x0000000017825778      0x1e4 drivers/spi/built-in.o
                0x0000000017825778                spi_xchg_single
 .text.spi_xfer
                0x000000001782595c       0xa8 drivers/spi/built-in.o
                0x000000001782595c                spi_xfer
 .text.spi_setup_slave
                0x0000000017825a04       0xe0 drivers/spi/built-in.o
                0x0000000017825a04                spi_setup_slave
 .text.spi_free_slave
                0x0000000017825ae4        0x4 drivers/spi/built-in.o
                0x0000000017825ae4                spi_free_slave
 .text.spi_claim_bus
                0x0000000017825ae8      0x180 drivers/spi/built-in.o
                0x0000000017825ae8                spi_claim_bus
 .text.spi_release_bus
                0x0000000017825c68        0x4 drivers/spi/built-in.o
                0x0000000017825c68                spi_release_bus
 .text.usb_host_eth_scan
                0x0000000017825c6c      0x1b4 drivers/usb/eth/built-in.o
                0x0000000017825c6c                usb_host_eth_scan
 .text.asix_halt
                0x0000000017825e20        0x4 drivers/usb/eth/built-in.o
 .text.asix_send_common
                0x0000000017825e24       0x98 drivers/usb/eth/built-in.o
 .text.asix_send
                0x0000000017825ebc        0x8 drivers/usb/eth/built-in.o
 .text.asix_recv
                0x0000000017825ec4      0x128 drivers/usb/eth/built-in.o
 .text.asix_write_cmd.isra.0
                0x0000000017825fec       0x4c drivers/usb/eth/built-in.o
 .text.asix_write_hwaddr_common
                0x0000000017826038       0x48 drivers/usb/eth/built-in.o
 .text.asix_write_hwaddr
                0x0000000017826080        0xc drivers/usb/eth/built-in.o
 .text.asix_mdio_write
                0x000000001782608c       0x84 drivers/usb/eth/built-in.o
 .text.asix_sw_reset
                0x0000000017826110       0x40 drivers/usb/eth/built-in.o
 .text.asix_read_cmd.isra.1
                0x0000000017826150       0x50 drivers/usb/eth/built-in.o
 .text.asix_mdio_read
                0x00000000178261a0       0x84 drivers/usb/eth/built-in.o
 .text.asix_read_rx_ctl
                0x0000000017826224       0x44 drivers/usb/eth/built-in.o
 .text.asix_init
                0x0000000017826268       0xec drivers/usb/eth/built-in.o
 .text.asix_eth_before_probe
                0x0000000017826354       0x14 drivers/usb/eth/built-in.o
                0x0000000017826354                asix_eth_before_probe
 .text.asix_eth_probe
                0x0000000017826368      0x188 drivers/usb/eth/built-in.o
                0x0000000017826368                asix_eth_probe
 .text.asix_eth_get_info
                0x00000000178264f0      0x354 drivers/usb/eth/built-in.o
                0x00000000178264f0                asix_eth_get_info
 .text.usb_ep_autoconfig
                0x0000000017826844      0x1f8 drivers/usb/gadget/built-in.o
                0x0000000017826844                usb_ep_autoconfig
 .text.usb_ep_autoconfig_reset
                0x0000000017826a3c       0x38 drivers/usb/gadget/built-in.o
                0x0000000017826a3c                usb_ep_autoconfig_reset
 .text.usb_descriptor_fillbuf
                0x0000000017826a74       0x64 drivers/usb/gadget/built-in.o
                0x0000000017826a74                usb_descriptor_fillbuf
 .text.usb_gadget_get_string
                0x0000000017826ad8      0x18c drivers/usb/gadget/built-in.o
                0x0000000017826ad8                usb_gadget_get_string
 .text.ci_ep_disable
                0x0000000017826c64       0x10 drivers/usb/gadget/built-in.o
 .text.ci_ep_dequeue
                0x0000000017826c74       0x8c drivers/usb/gadget/built-in.o
 .text.ci_ep_free_request
                0x0000000017826d00       0x54 drivers/usb/gadget/built-in.o
 .text.ci_ep_alloc_request
                0x0000000017826d54       0x68 drivers/usb/gadget/built-in.o
 .text.ci_flush_qtd
                0x0000000017826dbc       0x18 drivers/usb/gadget/built-in.o
 .text.ci_flush_qh
                0x0000000017826dd4       0x18 drivers/usb/gadget/built-in.o
 .text.stop_activity
                0x0000000017826dec       0x8c drivers/usb/gadget/built-in.o
 .text.ep_enable
                0x0000000017826e78       0x50 drivers/usb/gadget/built-in.o
 .text.ci_ep_enable
                0x0000000017826ec8       0x64 drivers/usb/gadget/built-in.o
 .text.ci_ep_submit_next_request
                0x0000000017826f2c      0x1d4 drivers/usb/gadget/built-in.o
 .text.ci_ep_queue
                0x0000000017827100      0x140 drivers/usb/gadget/built-in.o
 .text.udc_irq  0x0000000017827240      0x4dc drivers/usb/gadget/built-in.o
                0x0000000017827240                udc_irq
 .text.usb_gadget_handle_interrupts
                0x000000001782771c       0x2c drivers/usb/gadget/built-in.o
                0x000000001782771c                usb_gadget_handle_interrupts
 .text.udc_disconnect
                0x0000000017827748       0x44 drivers/usb/gadget/built-in.o
                0x0000000017827748                udc_disconnect
 .text.ci_pullup
                0x000000001782778c       0x64 drivers/usb/gadget/built-in.o
 .text.usb_gadget_register_driver
                0x00000000178277f0      0x278 drivers/usb/gadget/built-in.o
                0x00000000178277f0                usb_gadget_register_driver
 .text.usb_gadget_unregister_driver
                0x0000000017827a68       0x4c drivers/usb/gadget/built-in.o
                0x0000000017827a68                usb_gadget_unregister_driver
 .text.dfu_usb_get_reset
                0x0000000017827ab4       0x1c drivers/usb/gadget/built-in.o
                0x0000000017827ab4                dfu_usb_get_reset
 .text.count_configs
                0x0000000017827ad0       0x6c drivers/usb/gadget/built-in.o
 .text.collect_langs
                0x0000000017827b3c       0x50 drivers/usb/gadget/built-in.o
 .text.composite_setup_complete
                0x0000000017827b8c        0x4 drivers/usb/gadget/built-in.o
 .text.composite_suspend
                0x0000000017827b90       0x80 drivers/usb/gadget/built-in.o
 .text.composite_resume
                0x0000000017827c10       0x7c drivers/usb/gadget/built-in.o
 .text.g_dnl_unbind
                0x0000000017827c8c       0x30 drivers/usb/gadget/built-in.o
 .text.lookup_string
                0x0000000017827cbc       0x4c drivers/usb/gadget/built-in.o
 .text.composite_unbind
                0x0000000017827d08      0x128 drivers/usb/gadget/built-in.o
 .text.composite_bind
                0x0000000017827e30      0x128 drivers/usb/gadget/built-in.o
 .text.g_dnl_do_config
                0x0000000017827f58       0x5c drivers/usb/gadget/built-in.o
 .text.reset_config.isra.0
                0x0000000017827fb4       0x5c drivers/usb/gadget/built-in.o
 .text.composite_disconnect
                0x0000000017828010       0x40 drivers/usb/gadget/built-in.o
 .text.composite_setup
                0x0000000017828050      0x85c drivers/usb/gadget/built-in.o
 .text.usb_add_function
                0x00000000178288ac       0xcc drivers/usb/gadget/built-in.o
                0x00000000178288ac                usb_add_function
 .text.usb_interface_id
                0x0000000017828978       0x28 drivers/usb/gadget/built-in.o
                0x0000000017828978                usb_interface_id
 .text.usb_add_config
                0x00000000178289a0       0xcc drivers/usb/gadget/built-in.o
                0x00000000178289a0                usb_add_config
 .text.usb_string_id
                0x0000000017828a6c       0x20 drivers/usb/gadget/built-in.o
                0x0000000017828a6c                usb_string_id
 .text.usb_composite_register
                0x0000000017828a8c       0x60 drivers/usb/gadget/built-in.o
                0x0000000017828a8c                usb_composite_register
 .text.usb_composite_unregister
                0x0000000017828aec       0x30 drivers/usb/gadget/built-in.o
                0x0000000017828aec                usb_composite_unregister
 .text.g_dnl_set_serialnumber
                0x0000000017828b1c       0x48 drivers/usb/gadget/built-in.o
                0x0000000017828b1c                g_dnl_set_serialnumber
 .text.g_dnl_bind_fixup
                0x0000000017828b64        0x8 drivers/usb/gadget/built-in.o
                0x0000000017828b64                g_dnl_bind_fixup
 .text.g_dnl_get_board_bcd_device_number
                0x0000000017828b6c        0x4 drivers/usb/gadget/built-in.o
                0x0000000017828b6c                g_dnl_get_board_bcd_device_number
 .text.g_dnl_bind
                0x0000000017828b70      0x160 drivers/usb/gadget/built-in.o
 .text.g_dnl_board_usb_cable_connected
                0x0000000017828cd0        0x8 drivers/usb/gadget/built-in.o
                0x0000000017828cd0                g_dnl_board_usb_cable_connected
 .text.g_dnl_detach
                0x0000000017828cd8       0x10 drivers/usb/gadget/built-in.o
                0x0000000017828cd8                g_dnl_detach
 .text.g_dnl_trigger_detach
                0x0000000017828ce8       0x14 drivers/usb/gadget/built-in.o
                0x0000000017828ce8                g_dnl_trigger_detach
 .text.g_dnl_clear_detach
                0x0000000017828cfc       0x14 drivers/usb/gadget/built-in.o
                0x0000000017828cfc                g_dnl_clear_detach
 .text.g_dnl_register
                0x0000000017828d10       0x40 drivers/usb/gadget/built-in.o
                0x0000000017828d10                g_dnl_register
 .text.g_dnl_unregister
                0x0000000017828d50        0xc drivers/usb/gadget/built-in.o
                0x0000000017828d50                g_dnl_unregister
 .text.handle_getstate
                0x0000000017828d5c       0x1c drivers/usb/gadget/built-in.o
 .text.dfu_set_alt
                0x0000000017828d78       0x1c drivers/usb/gadget/built-in.o
 .text.__dfu_get_alt
                0x0000000017828d94        0x8 drivers/usb/gadget/built-in.o
 .text.dfu_disable
                0x0000000017828d9c       0x14 drivers/usb/gadget/built-in.o
 .text.dfu_add  0x0000000017828db0       0xf0 drivers/usb/gadget/built-in.o
                0x0000000017828db0                dfu_add
 .text.dfu_handle
                0x0000000017828ea0       0xd8 drivers/usb/gadget/built-in.o
 .text.dnload_request_flush
                0x0000000017828f78       0x38 drivers/usb/gadget/built-in.o
 .text.dnload_request_complete
                0x0000000017828fb0       0x38 drivers/usb/gadget/built-in.o
 .text.dfu_unbind
                0x0000000017828fe8       0x8c drivers/usb/gadget/built-in.o
 .text.dfu_bind
                0x0000000017829074      0x1e8 drivers/usb/gadget/built-in.o
 .text.handle_upload.isra.5
                0x000000001782925c       0x24 drivers/usb/gadget/built-in.o
 .text.handle_getstatus
                0x0000000017829280      0x138 drivers/usb/gadget/built-in.o
 .text.state_dfu_error
                0x00000000178293b8       0x64 drivers/usb/gadget/built-in.o
 .text.state_dfu_manifest_sync
                0x000000001782941c       0x6c drivers/usb/gadget/built-in.o
 .text.state_dfu_dnload_idle
                0x0000000017829488       0xb4 drivers/usb/gadget/built-in.o
 .text.state_dfu_dnbusy
                0x000000001782953c       0x30 drivers/usb/gadget/built-in.o
 .text.state_dfu_dnload_sync
                0x000000001782956c       0x48 drivers/usb/gadget/built-in.o
 .text.state_app_detach
                0x00000000178295b4       0x48 drivers/usb/gadget/built-in.o
 .text.state_app_idle
                0x00000000178295fc       0x6c drivers/usb/gadget/built-in.o
 .text.state_dfu_upload_idle
                0x0000000017829668       0xa0 drivers/usb/gadget/built-in.o
 .text.state_dfu_manifest
                0x0000000017829708       0x64 drivers/usb/gadget/built-in.o
 .text.state_dfu_idle
                0x000000001782976c       0xe8 drivers/usb/gadget/built-in.o
 .text.raise_exception
                0x0000000017829854       0x20 drivers/usb/gadget/built-in.o
 .text.ep0_queue
                0x0000000017829874       0x2c drivers/usb/gadget/built-in.o
 .text.bulk_in_complete
                0x00000000178298a0       0x44 drivers/usb/gadget/built-in.o
 .text.bulk_out_complete
                0x00000000178298e4       0x44 drivers/usb/gadget/built-in.o
 .text.fsg_set_alt
                0x0000000017829928       0x20 drivers/usb/gadget/built-in.o
 .text.fsg_disable
                0x0000000017829948       0x14 drivers/usb/gadget/built-in.o
 .text.fsg_setup
                0x000000001782995c       0xf0 drivers/usb/gadget/built-in.o
 .text.fsg_unbind
                0x0000000017829a4c       0x44 drivers/usb/gadget/built-in.o
 .text.store_cdrom_address
                0x0000000017829a90       0x84 drivers/usb/gadget/built-in.o
 .text.fsg_set_halt.isra.7
                0x0000000017829b14       0x10 drivers/usb/gadget/built-in.o
 .text.start_transfer.isra.9
                0x0000000017829b24       0x40 drivers/usb/gadget/built-in.o
 .text.halt_bulk_in_endpoint.isra.14
                0x0000000017829b64       0x38 drivers/usb/gadget/built-in.o
 .text.sleep_thread.isra.17
                0x0000000017829b9c      0x108 drivers/usb/gadget/built-in.o
 .text.do_read  0x0000000017829ca4      0x224 drivers/usb/gadget/built-in.o
 .text.do_write
                0x0000000017829ec8      0x350 drivers/usb/gadget/built-in.o
 .text.send_status
                0x000000001782a218      0x100 drivers/usb/gadget/built-in.o
 .text.check_command.isra.18
                0x000000001782a318      0x184 drivers/usb/gadget/built-in.o
 .text.do_mode_sense.isra.20
                0x000000001782a49c      0x194 drivers/usb/gadget/built-in.o
 .text.fsg_add  0x000000001782a630      0x280 drivers/usb/gadget/built-in.o
                0x000000001782a630                fsg_add
 .text.do_set_interface
                0x000000001782a8b0      0x258 drivers/usb/gadget/built-in.o
 .text.fsg_main_thread
                0x000000001782ab08     0x1290 drivers/usb/gadget/built-in.o
                0x000000001782ab08                fsg_main_thread
 .text.usb_copy_descriptors
                0x000000001782bd98       0x80 drivers/usb/gadget/built-in.o
                0x000000001782bd98                usb_copy_descriptors
 .text.fsg_bind
                0x000000001782be18       0xf4 drivers/usb/gadget/built-in.o
 .text.fsg_init
                0x000000001782bf0c       0x14 drivers/usb/gadget/built-in.o
                0x000000001782bf0c                fsg_init
 .text.rx_bytes_expected
                0x000000001782bf20       0x6c drivers/usb/gadget/built-in.o
 .text.fastboot_start_ep
                0x000000001782bf8c       0x70 drivers/usb/gadget/built-in.o
 .text.fastboot_unbind
                0x000000001782bffc       0x18 drivers/usb/gadget/built-in.o
 .text.fastboot_add
                0x000000001782c014       0xc8 drivers/usb/gadget/built-in.o
 .text.fastboot_disable
                0x000000001782c0dc       0x8c drivers/usb/gadget/built-in.o
 .text.fastboot_complete
                0x000000001782c168       0x24 drivers/usb/gadget/built-in.o
 .text.do_exit_on_complete
                0x000000001782c18c        0x4 drivers/usb/gadget/built-in.o
 .text.do_bootm_on_complete
                0x000000001782c190       0x78 drivers/usb/gadget/built-in.o
 .text.compl_do_reset
                0x000000001782c208       0x14 drivers/usb/gadget/built-in.o
 .text.strcmp_l1
                0x000000001782c21c       0x38 drivers/usb/gadget/built-in.o
 .text.fastboot_tx_write_str
                0x000000001782c254       0x84 drivers/usb/gadget/built-in.o
 .text.rx_handler_command
                0x000000001782c2d8      0x11c drivers/usb/gadget/built-in.o
 .text.cb_oem   0x000000001782c3f4       0x38 drivers/usb/gadget/built-in.o
 .text.cb_continue
                0x000000001782c42c       0x28 drivers/usb/gadget/built-in.o
 .text.cb_boot  0x000000001782c454       0x28 drivers/usb/gadget/built-in.o
 .text.cb_download
                0x000000001782c47c      0x104 drivers/usb/gadget/built-in.o
 .text.rx_handler_dl_image
                0x000000001782c580      0x164 drivers/usb/gadget/built-in.o
 .text.cb_getvar
                0x000000001782c6e4      0x190 drivers/usb/gadget/built-in.o
 .text.fastboot_bind
                0x000000001782c874       0xd4 drivers/usb/gadget/built-in.o
 .text.fastboot_set_alt
                0x000000001782c948      0x140 drivers/usb/gadget/built-in.o
 .text.fb_set_reboot_flag
                0x000000001782ca88        0x8 drivers/usb/gadget/built-in.o
                0x000000001782ca88                fb_set_reboot_flag
 .text.cb_reboot
                0x000000001782ca90       0x5c drivers/usb/gadget/built-in.o
 .text.ehci_get_port_speed
                0x000000001782caec        0x8 drivers/usb/host/built-in.o
 .text.ehci_set_usbmode
                0x000000001782caf4       0x14 drivers/usb/host/built-in.o
 .text.ehci_get_portsc_register
                0x000000001782cb08       0x18 drivers/usb/host/built-in.o
 .text.ehci_powerup_fixup
                0x000000001782cb20        0x8 drivers/usb/host/built-in.o
 .text.handshake
                0x000000001782cb28       0x50 drivers/usb/host/built-in.o
 .text.ehci_shutdown
                0x000000001782cb78       0xa0 drivers/usb/host/built-in.o
 .text.ehci_td_buffer
                0x000000001782cc18       0x80 drivers/usb/host/built-in.o
 .text._ehci_poll_int_queue
                0x000000001782cc98       0xbc drivers/usb/host/built-in.o
 .text.ehci_update_endpt2_dev_n_port.isra.1.part.2
                0x000000001782cd54       0x44 drivers/usb/host/built-in.o
 .text.ehci_submit_async
                0x000000001782cd98      0x5a8 drivers/usb/host/built-in.o
 .text.disable_periodic.isra.4
                0x000000001782d340       0x48 drivers/usb/host/built-in.o
 .text.enable_periodic.isra.5
                0x000000001782d388       0x50 drivers/usb/host/built-in.o
 .text._ehci_destroy_int_queue
                0x000000001782d3d8       0xdc drivers/usb/host/built-in.o
 .text._ehci_create_int_queue.isra.7
                0x000000001782d4b4      0x388 drivers/usb/host/built-in.o
 .text.usb_lowlevel_stop
                0x000000001782d83c       0x24 drivers/usb/host/built-in.o
                0x000000001782d83c                usb_lowlevel_stop
 .text.usb_lowlevel_init
                0x000000001782d860      0x290 drivers/usb/host/built-in.o
                0x000000001782d860                usb_lowlevel_init
 .text.submit_bulk_msg
                0x000000001782daf0       0x28 drivers/usb/host/built-in.o
                0x000000001782daf0                submit_bulk_msg
 .text.submit_control_msg
                0x000000001782db18      0x518 drivers/usb/host/built-in.o
                0x000000001782db18                submit_control_msg
 .text.submit_int_msg
                0x000000001782e030       0xa4 drivers/usb/host/built-in.o
                0x000000001782e030                submit_int_msg
 .text.wait_for_bit.constprop.0
                0x000000001782e0d4       0x54 drivers/usb/host/built-in.o
 .text.usb_phy_mode
                0x000000001782e128       0x18 drivers/usb/host/built-in.o
                0x000000001782e128                usb_phy_mode
 .text.board_usb_phy_mode
                0x000000001782e140        0x4 drivers/usb/host/built-in.o
                0x000000001782e140                board_usb_phy_mode
 .text.ehci_hcd_init
                0x000000001782e144      0x1e8 drivers/usb/host/built-in.o
                0x000000001782e144                ehci_hcd_init
 .text.ehci_hcd_stop
                0x000000001782e32c        0x8 drivers/usb/host/built-in.o
                0x000000001782e32c                ehci_hcd_stop
 .text.fs_probe_unsupported
                0x000000001782e334       0x18 fs/built-in.o
 .text.fs_exists_unsupported
                0x000000001782e34c        0x8 fs/built-in.o
 .text.fs_size_unsupported
                0x000000001782e354        0x8 fs/built-in.o
 .text.fs_write_unsupported
                0x000000001782e35c        0x8 fs/built-in.o
 .text.fs_close_unsupported
                0x000000001782e364        0x4 fs/built-in.o
 .text.fs_uuid_unsupported
                0x000000001782e368        0x8 fs/built-in.o
 .text.fs_get_info
                0x000000001782e370       0x34 fs/built-in.o
 .text.fs_close
                0x000000001782e3a4       0x28 fs/built-in.o
 .text.fs_read_unsupported
                0x000000001782e3cc        0x8 fs/built-in.o
 .text.fs_ls_unsupported
                0x000000001782e3d4        0x8 fs/built-in.o
 .text.fs_set_blk_dev
                0x000000001782e3dc       0xb4 fs/built-in.o
                0x000000001782e3dc                fs_set_blk_dev
 .text.fs_ls    0x000000001782e490       0x3c fs/built-in.o
                0x000000001782e490                fs_ls
 .text.fs_exists
                0x000000001782e4cc       0x34 fs/built-in.o
                0x000000001782e4cc                fs_exists
 .text.fs_size  0x000000001782e500       0x3c fs/built-in.o
                0x000000001782e500                fs_size
 .text.fs_read  0x000000001782e53c       0xa0 fs/built-in.o
                0x000000001782e53c                fs_read
 .text.fs_write
                0x000000001782e5dc       0x90 fs/built-in.o
                0x000000001782e5dc                fs_write
 .text.do_size  0x000000001782e66c       0x60 fs/built-in.o
                0x000000001782e66c                do_size
 .text.do_load  0x000000001782e6cc      0x234 fs/built-in.o
                0x000000001782e6cc                do_load
 .text.do_ls    0x000000001782e900       0x68 fs/built-in.o
                0x000000001782e900                do_ls
 .text.file_exists
                0x000000001782e968       0x2c fs/built-in.o
                0x000000001782e968                file_exists
 .text.do_save  0x000000001782e994      0x17c fs/built-in.o
                0x000000001782e994                do_save
 .text.do_fs_type
                0x000000001782eb10       0x70 fs/built-in.o
                0x000000001782eb10                do_fs_type
 .text.get_fs   0x000000001782eb80        0xc fs/built-in.o
                0x000000001782eb80                get_fs
 .text.ext4fs_free_node
                0x000000001782eb8c       0x20 fs/built-in.o
                0x000000001782eb8c                ext4fs_free_node
 .text.ext4fs_read_file
                0x000000001782ebac      0x374 fs/built-in.o
                0x000000001782ebac                ext4fs_read_file
 .text.ext4fs_ls
                0x000000001782ef20       0x78 fs/built-in.o
                0x000000001782ef20                ext4fs_ls
 .text.ext4fs_exists
                0x000000001782ef98       0x1c fs/built-in.o
                0x000000001782ef98                ext4fs_exists
 .text.ext4fs_size
                0x000000001782efb4        0x4 fs/built-in.o
                0x000000001782efb4                ext4fs_size
 .text.ext4fs_read
                0x000000001782efb8       0x5c fs/built-in.o
                0x000000001782efb8                ext4fs_read
 .text.ext4fs_probe
                0x000000001782f014       0x30 fs/built-in.o
                0x000000001782f014                ext4fs_probe
 .text.ext4_read_file
                0x000000001782f044       0x7c fs/built-in.o
                0x000000001782f044                ext4_read_file
 .text.ext4fs_uuid
                0x000000001782f0c0       0x1c fs/built-in.o
                0x000000001782f0c0                ext4fs_uuid
 .text.ext4fs_div_roundup
                0x000000001782f0dc       0x20 fs/built-in.o
                0x000000001782f0dc                ext4fs_div_roundup
 .text.put_ext4
                0x000000001782f0fc      0x1a8 fs/built-in.o
                0x000000001782f0fc                put_ext4
 .text.ext4fs_set_block_bmap
                0x000000001782f2a4       0xb0 fs/built-in.o
                0x000000001782f2a4                ext4fs_set_block_bmap
 .text.ext4fs_reset_block_bmap
                0x000000001782f354       0x9c fs/built-in.o
                0x000000001782f354                ext4fs_reset_block_bmap
 .text.ext4fs_set_inode_bmap
                0x000000001782f3f0       0x74 fs/built-in.o
                0x000000001782f3f0                ext4fs_set_inode_bmap
 .text.ext4fs_reset_inode_bmap
                0x000000001782f464       0x70 fs/built-in.o
                0x000000001782f464                ext4fs_reset_inode_bmap
 .text.ext4fs_checksum_update
                0x000000001782f4d4       0x68 fs/built-in.o
                0x000000001782f4d4                ext4fs_checksum_update
 .text.ext4fs_get_new_blk_no
                0x000000001782f53c      0x39c fs/built-in.o
                0x000000001782f53c                ext4fs_get_new_blk_no
 .text.ext4fs_get_new_inode_no
                0x000000001782f8d8      0x380 fs/built-in.o
                0x000000001782f8d8                ext4fs_get_new_inode_no
 .text.ext4fs_allocate_blocks
                0x000000001782fc58      0x610 fs/built-in.o
                0x000000001782fc58                ext4fs_allocate_blocks
 .text.ext4fs_read_inode
                0x0000000017830268      0x134 fs/built-in.o
                0x0000000017830268                ext4fs_read_inode
 .text.ext4fs_iget
                0x000000001783039c       0x2c fs/built-in.o
                0x000000001783039c                ext4fs_iget
 .text.read_allocated_block
                0x00000000178303c8      0x914 fs/built-in.o
                0x00000000178303c8                read_allocated_block
 .text.ext4fs_update_parent_dentry
                0x0000000017830cdc      0x3a4 fs/built-in.o
                0x0000000017830cdc                ext4fs_update_parent_dentry
 .text.search_dir
                0x0000000017831080      0x120 fs/built-in.o
 .text.ext4fs_get_parent_inode_num
                0x00000000178311a0      0x42c fs/built-in.o
                0x00000000178311a0                ext4fs_get_parent_inode_num
 .text.ext4fs_filename_check
                0x00000000178315cc      0x174 fs/built-in.o
                0x00000000178315cc                ext4fs_filename_check
 .text.ext4fs_reinit_global
                0x0000000017831740       0xbc fs/built-in.o
                0x0000000017831740                ext4fs_reinit_global
 .text.ext4fs_close
                0x00000000178317fc       0x60 fs/built-in.o
                0x00000000178317fc                ext4fs_close
 .text.ext4fs_iterate_dir
                0x000000001783185c      0x2b4 fs/built-in.o
                0x000000001783185c                ext4fs_iterate_dir
 .text.ext4fs_find_file1
                0x0000000017831b10      0x2bc fs/built-in.o
 .text.ext4fs_find_file
                0x0000000017831dcc       0x78 fs/built-in.o
                0x0000000017831dcc                ext4fs_find_file
 .text.ext4fs_open
                0x0000000017831e44       0xac fs/built-in.o
                0x0000000017831e44                ext4fs_open
 .text.ext4fs_mount
                0x0000000017831ef0       0xc4 fs/built-in.o
                0x0000000017831ef0                ext4fs_mount
 .text.ext4fs_set_blk_dev
                0x0000000017831fb4       0x6c fs/built-in.o
                0x0000000017831fb4                ext4fs_set_blk_dev
 .text.ext4fs_devread
                0x0000000017832020      0x278 fs/built-in.o
                0x0000000017832020                ext4fs_devread
 .text.ext4_read_superblock
                0x0000000017832298       0x38 fs/built-in.o
                0x0000000017832298                ext4_read_superblock
 .text.ext4fs_update
                0x00000000178322d0       0xf0 fs/built-in.o
 .text.ext4fs_get_bgdtable
                0x00000000178323c0       0xd4 fs/built-in.o
                0x00000000178323c0                ext4fs_get_bgdtable
 .text.ext4fs_deinit
                0x0000000017832494      0x19c fs/built-in.o
                0x0000000017832494                ext4fs_deinit
 .text.ext4fs_init
                0x0000000017832630      0x2bc fs/built-in.o
                0x0000000017832630                ext4fs_init
 .text.ext4fs_write
                0x00000000178328ec     0x125c fs/built-in.o
                0x00000000178328ec                ext4fs_write
 .text.ext4_write_file
                0x0000000017833b48       0x60 fs/built-in.o
                0x0000000017833b48                ext4_write_file
 .text.ext4fs_dump_metadata
                0x0000000017833ba8       0x54 fs/built-in.o
                0x0000000017833ba8                ext4fs_dump_metadata
 .text.ext4fs_free_journal
                0x0000000017833bfc       0xe8 fs/built-in.o
                0x0000000017833bfc                ext4fs_free_journal
 .text.ext4fs_log_gdt
                0x0000000017833ce4       0xc8 fs/built-in.o
                0x0000000017833ce4                ext4fs_log_gdt
 .text.ext4fs_log_journal
                0x0000000017833dac       0xec fs/built-in.o
                0x0000000017833dac                ext4fs_log_journal
 .text.ext4fs_put_metadata
                0x0000000017833e98       0xbc fs/built-in.o
                0x0000000017833e98                ext4fs_put_metadata
 .text.ext4fs_push_revoke_blk
                0x0000000017833f54       0xd8 fs/built-in.o
                0x0000000017833f54                ext4fs_push_revoke_blk
 .text.ext4fs_free_revoke_blks
                0x000000001783402c       0x70 fs/built-in.o
                0x000000001783402c                ext4fs_free_revoke_blks
 .text.check_blknr_for_revoke
                0x000000001783409c       0x6c fs/built-in.o
                0x000000001783409c                check_blknr_for_revoke
 .text.recover_transaction
                0x0000000017834108      0x168 fs/built-in.o
                0x0000000017834108                recover_transaction
 .text.print_jrnl_status
                0x0000000017834270       0x18 fs/built-in.o
                0x0000000017834270                print_jrnl_status
 .text.ext4fs_check_journal_state
                0x0000000017834288      0x30c fs/built-in.o
                0x0000000017834288                ext4fs_check_journal_state
 .text.ext4fs_init_journal
                0x0000000017834594      0x260 fs/built-in.o
                0x0000000017834594                ext4fs_init_journal
 .text.ext4fs_update_journal
                0x00000000178347f4      0x32c fs/built-in.o
                0x00000000178347f4                ext4fs_update_journal
 .text.ext2fs_crc16
                0x0000000017834b20       0x3c fs/built-in.o
                0x0000000017834b20                ext2fs_crc16
 .text.downcase
                0x0000000017834b5c       0x30 fs/built-in.o
 .text.disk_read
                0x0000000017834b8c       0x74 fs/built-in.o
 .text.dirdelim
                0x0000000017834c00       0x38 fs/built-in.o
 .text.get_fatent
                0x0000000017834c38      0x154 fs/built-in.o
 .text.mkcksum  0x0000000017834d8c       0x50 fs/built-in.o
 .text.disk_write
                0x0000000017834ddc       0x94 fs/built-in.o
 .text.flush_fat_buffer
                0x0000000017834e70       0x80 fs/built-in.o
 .text.set_fatent_value
                0x0000000017834ef0      0x100 fs/built-in.o
 .text.get_fatent_value
                0x0000000017834ff0      0x1c8 fs/built-in.o
 .text.find_empty_cluster
                0x00000000178351b8       0x2c fs/built-in.o
 .text.get_cluster
                0x00000000178351e4      0x170 fs/built-in.o
 .text.get_name
                0x0000000017835354       0xac fs/built-in.o
 .text.set_cluster
                0x0000000017835400      0x168 fs/built-in.o
 .text.read_bootsectandvi
                0x0000000017835568      0x128 fs/built-in.o
 .text.set_name
                0x0000000017835690      0x154 fs/built-in.o
 .text.check_overflow
                0x00000000178357e4       0xa8 fs/built-in.o
 .text.slot2str
                0x000000001783588c       0xbc fs/built-in.o
 .text.get_vfatname
                0x0000000017835948      0x1b8 fs/built-in.o
 .text.flush_dir_table.constprop.8
                0x0000000017835b00       0xc8 fs/built-in.o
 .text.do_fat_write
                0x0000000017835bc8      0xbe8 fs/built-in.o
 .text.fat_set_blk_dev
                0x00000000178367b0       0xcc fs/built-in.o
                0x00000000178367b0                fat_set_blk_dev
 .text.do_fat_read_at
                0x000000001783687c      0xca0 fs/built-in.o
                0x000000001783687c                do_fat_read_at
 .text.do_fat_read
                0x000000001783751c       0x3c fs/built-in.o
                0x000000001783751c                do_fat_read
 .text.file_fat_detectfs
                0x0000000017837558      0x148 fs/built-in.o
                0x0000000017837558                file_fat_detectfs
 .text.file_fat_ls
                0x00000000178376a0       0x2c fs/built-in.o
                0x00000000178376a0                file_fat_ls
 .text.fat_exists
                0x00000000178376cc       0x44 fs/built-in.o
                0x00000000178376cc                fat_exists
 .text.fat_size
                0x0000000017837710       0x38 fs/built-in.o
                0x0000000017837710                fat_size
 .text.file_fat_read_at
                0x0000000017837748       0x60 fs/built-in.o
                0x0000000017837748                file_fat_read_at
 .text.fat_read_file
                0x00000000178377a8       0x48 fs/built-in.o
                0x00000000178377a8                fat_read_file
 .text.fat_close
                0x00000000178377f0        0x4 fs/built-in.o
                0x00000000178377f0                fat_close
 .text.file_fat_write
                0x00000000178377f4       0x5c fs/built-in.o
                0x00000000178377f4                file_fat_write
 .text.zcalloc  0x0000000017837850        0x8 lib/built-in.o
                0x0000000017837850                zcalloc
 .text.zcfree   0x0000000017837858        0x8 lib/built-in.o
                0x0000000017837858                zcfree
 .text.inflate_fast
                0x0000000017837860      0x578 lib/built-in.o
                0x0000000017837860                inflate_fast
 .text.inflate_table
                0x0000000017837dd8      0x530 lib/built-in.o
                0x0000000017837dd8                inflate_table
 .text.inflateReset
                0x0000000017838308       0x78 lib/built-in.o
                0x0000000017838308                inflateReset
 .text.inflateInit2_
                0x0000000017838380      0x104 lib/built-in.o
                0x0000000017838380                inflateInit2_
 .text.inflateEnd
                0x0000000017838484       0x68 lib/built-in.o
                0x0000000017838484                inflateEnd
 .text.adler32  0x00000000178384ec      0x334 lib/built-in.o
                0x00000000178384ec                adler32
 .text.inflate  0x0000000017838820     0x14d8 lib/built-in.o
                0x0000000017838820                inflate
 .text.fdt_check_header
                0x0000000017839cf8       0x74 lib/built-in.o
                0x0000000017839cf8                fdt_check_header
 .text.fdt_offset_ptr
                0x0000000017839d6c       0x4c lib/built-in.o
                0x0000000017839d6c                fdt_offset_ptr
 .text.fdt_next_tag
                0x0000000017839db8       0xfc lib/built-in.o
                0x0000000017839db8                fdt_next_tag
 .text._fdt_check_node_offset
                0x0000000017839eb4       0x3c lib/built-in.o
                0x0000000017839eb4                _fdt_check_node_offset
 .text._fdt_check_prop_offset
                0x0000000017839ef0       0x3c lib/built-in.o
                0x0000000017839ef0                _fdt_check_prop_offset
 .text.fdt_next_node
                0x0000000017839f2c       0xb8 lib/built-in.o
                0x0000000017839f2c                fdt_next_node
 .text._fdt_find_string
                0x0000000017839fe4       0x5c lib/built-in.o
                0x0000000017839fe4                _fdt_find_string
 .text.fdt_move
                0x000000001783a040       0x48 lib/built-in.o
                0x000000001783a040                fdt_move
 .text.fdt_path_next_seperator
                0x000000001783a088       0x44 lib/built-in.o
 .text._nextprop
                0x000000001783a0cc       0x5c lib/built-in.o
 .text.fdt_string
                0x000000001783a128       0x14 lib/built-in.o
                0x000000001783a128                fdt_string
 .text.fdt_get_mem_rsv
                0x000000001783a13c       0x60 lib/built-in.o
                0x000000001783a13c                fdt_get_mem_rsv
 .text.fdt_num_mem_rsv
                0x000000001783a19c       0x3c lib/built-in.o
                0x000000001783a19c                fdt_num_mem_rsv
 .text.fdt_subnode_offset_namelen
                0x000000001783a1d8       0xd8 lib/built-in.o
                0x000000001783a1d8                fdt_subnode_offset_namelen
 .text.fdt_subnode_offset
                0x000000001783a2b0       0x30 lib/built-in.o
                0x000000001783a2b0                fdt_subnode_offset
 .text.fdt_get_name
                0x000000001783a2e0       0x74 lib/built-in.o
                0x000000001783a2e0                fdt_get_name
 .text.fdt_first_property_offset
                0x000000001783a354       0x20 lib/built-in.o
                0x000000001783a354                fdt_first_property_offset
 .text.fdt_next_property_offset
                0x000000001783a374       0x20 lib/built-in.o
                0x000000001783a374                fdt_next_property_offset
 .text.fdt_get_property_by_offset
                0x000000001783a394       0x50 lib/built-in.o
                0x000000001783a394                fdt_get_property_by_offset
 .text.fdt_get_property_namelen
                0x000000001783a3e4       0xb8 lib/built-in.o
                0x000000001783a3e4                fdt_get_property_namelen
 .text.fdt_get_property
                0x000000001783a49c       0x3c lib/built-in.o
                0x000000001783a49c                fdt_get_property
 .text.fdt_getprop_namelen
                0x000000001783a4d8       0x20 lib/built-in.o
                0x000000001783a4d8                fdt_getprop_namelen
 .text.fdt_getprop
                0x000000001783a4f8       0x3c lib/built-in.o
                0x000000001783a4f8                fdt_getprop
 .text.fdt_get_alias_namelen
                0x000000001783a534       0x44 lib/built-in.o
                0x000000001783a534                fdt_get_alias_namelen
 .text.fdt_path_offset
                0x000000001783a578       0xf0 lib/built-in.o
                0x000000001783a578                fdt_path_offset
 .text.fdt_supernode_atdepth_offset
                0x000000001783a668       0xa4 lib/built-in.o
                0x000000001783a668                fdt_supernode_atdepth_offset
 .text.fdt_node_depth
                0x000000001783a70c       0x28 lib/built-in.o
                0x000000001783a70c                fdt_node_depth
 .text._fdt_blocks_misordered
                0x000000001783a734       0x64 lib/built-in.o
 .text._fdt_splice
                0x000000001783a798       0x7c lib/built-in.o
 .text._fdt_splice_mem_rsv
                0x000000001783a814       0x58 lib/built-in.o
 .text._fdt_splice_struct
                0x000000001783a86c       0x4c lib/built-in.o
 .text._fdt_packblocks
                0x000000001783a8b8       0x8c lib/built-in.o
 .text._fdt_find_add_string
                0x000000001783a944       0xa4 lib/built-in.o
 .text._fdt_add_property
                0x000000001783a9e8       0x98 lib/built-in.o
 .text._fdt_rw_check_header
                0x000000001783aa80       0x60 lib/built-in.o
 .text.fdt_add_mem_rsv
                0x000000001783aae0       0x88 lib/built-in.o
                0x000000001783aae0                fdt_add_mem_rsv
 .text.fdt_del_mem_rsv
                0x000000001783ab68       0x5c lib/built-in.o
                0x000000001783ab68                fdt_del_mem_rsv
 .text.fdt_setprop
                0x000000001783abc4       0xc8 lib/built-in.o
                0x000000001783abc4                fdt_setprop
 .text.fdt_delprop
                0x000000001783ac8c       0x60 lib/built-in.o
                0x000000001783ac8c                fdt_delprop
 .text.fdt_add_subnode_namelen
                0x000000001783acec       0xf0 lib/built-in.o
                0x000000001783acec                fdt_add_subnode_namelen
 .text.fdt_add_subnode
                0x000000001783addc       0x30 lib/built-in.o
                0x000000001783addc                fdt_add_subnode
 .text.fdt_del_node
                0x000000001783ae0c       0x58 lib/built-in.o
                0x000000001783ae0c                fdt_del_node
 .text.fdt_open_into
                0x000000001783ae64      0x190 lib/built-in.o
                0x000000001783ae64                fdt_open_into
 .text.fdt_strerror
                0x000000001783aff4       0x58 lib/built-in.o
                0x000000001783aff4                fdt_strerror
 .text._fdt_node_end_offset
                0x000000001783b04c       0x44 lib/built-in.o
                0x000000001783b04c                _fdt_node_end_offset
 .text.fdt_address_cells
                0x000000001783b090       0x4c lib/built-in.o
                0x000000001783b090                fdt_address_cells
 .text.fdt_size_cells
                0x000000001783b0dc       0x48 lib/built-in.o
                0x000000001783b0dc                fdt_size_cells
 .text.cyg_crc16
                0x000000001783b124       0x44 lib/built-in.o
                0x000000001783b124                cyg_crc16
 .text.gzalloc  0x000000001783b168       0x10 lib/built-in.o
                0x000000001783b168                gzalloc
 .text.gzfree   0x000000001783b178        0x8 lib/built-in.o
                0x000000001783b178                gzfree
 .text.zunzip   0x000000001783b180      0x128 lib/built-in.o
                0x000000001783b180                zunzip
 .text.gunzip   0x000000001783b2a8       0xb8 lib/built-in.o
                0x000000001783b2a8                gunzip
 .text.initcall_run_list
                0x000000001783b360       0x60 lib/built-in.o
                0x000000001783b360                initcall_run_list
 .text.lmb_add_region
                0x000000001783b3c0      0x18c lib/built-in.o
 .text.lmb_init
                0x000000001783b54c       0x28 lib/built-in.o
                0x000000001783b54c                lmb_init
 .text.lmb_add  0x000000001783b574        0x4 lib/built-in.o
                0x000000001783b574                lmb_add
 .text.lmb_free
                0x000000001783b578      0x100 lib/built-in.o
                0x000000001783b578                lmb_free
 .text.lmb_reserve
                0x000000001783b678        0x8 lib/built-in.o
                0x000000001783b678                lmb_reserve
 .text.__lmb_alloc_base
                0x000000001783b680      0x124 lib/built-in.o
                0x000000001783b680                __lmb_alloc_base
 .text.lmb_alloc_base
                0x000000001783b7a4       0x34 lib/built-in.o
                0x000000001783b7a4                lmb_alloc_base
 .text.lmb_alloc
                0x000000001783b7d8        0x8 lib/built-in.o
                0x000000001783b7d8                lmb_alloc
 .text.board_lmb_reserve
                0x000000001783b7e0        0x4 lib/built-in.o
                0x000000001783b7e0                board_lmb_reserve
 .text.string_to_ip
                0x000000001783b7e4       0x68 lib/built-in.o
                0x000000001783b7e4                string_to_ip
 .text.qsort    0x000000001783b84c       0xe0 lib/built-in.o
                0x000000001783b84c                qsort
 .text.strcmp_compar
                0x000000001783b92c        0xc lib/built-in.o
                0x000000001783b92c                strcmp_compar
 .text.cmpkey   0x000000001783b938       0x14 lib/built-in.o
 .text._hdelete.isra.0
                0x000000001783b94c       0x50 lib/built-in.o
 .text.drop_var_from_set.part.1
                0x000000001783b99c       0x50 lib/built-in.o
 .text.match_string
                0x000000001783b9ec       0xb4 lib/built-in.o
 .text.match_entry
                0x000000001783baa0       0xc0 lib/built-in.o
 .text.hcreate_r
                0x000000001783bb60       0xb0 lib/built-in.o
                0x000000001783bb60                hcreate_r
 .text.hdestroy_r
                0x000000001783bc10       0x78 lib/built-in.o
                0x000000001783bc10                hdestroy_r
 .text.hmatch_r
                0x000000001783bc88       0xa0 lib/built-in.o
                0x000000001783bc88                hmatch_r
 .text.hsearch_r
                0x000000001783bd28      0x498 lib/built-in.o
                0x000000001783bd28                hsearch_r
 .text.hdelete_r
                0x000000001783c1c0       0xdc lib/built-in.o
                0x000000001783c1c0                hdelete_r
 .text.hexport_r
                0x000000001783c29c      0x2a8 lib/built-in.o
                0x000000001783c29c                hexport_r
 .text.himport_r
                0x000000001783c544      0x3dc lib/built-in.o
                0x000000001783c544                himport_r
 .text.hwalk_r  0x000000001783c920       0x5c lib/built-in.o
                0x000000001783c920                hwalk_r
 .text.display_options
                0x000000001783c97c       0x20 lib/built-in.o
                0x000000001783c97c                display_options
 .text.print_size
                0x000000001783c99c      0x144 lib/built-in.o
                0x000000001783c99c                print_size
 .text.print_buffer
                0x000000001783cae0      0x1b4 lib/built-in.o
                0x000000001783cae0                print_buffer
 .text.crc32_no_comp
                0x000000001783cc94       0xcc lib/built-in.o
                0x000000001783cc94                crc32_no_comp
 .text.crc32    0x000000001783cd60       0x14 lib/built-in.o
                0x000000001783cd60                crc32
 .text.crc32_wd
                0x000000001783cd74        0x4 lib/built-in.o
                0x000000001783cd74                crc32_wd
 .text.crc32_wd_buf
                0x000000001783cd78       0x38 lib/built-in.o
                0x000000001783cd78                crc32_wd_buf
 .text.__div64_32
                0x000000001783cdb0       0xd0 lib/built-in.o
                0x000000001783cdb0                __div64_32
 .text.hang     0x000000001783ce80       0x1c lib/built-in.o
                0x000000001783ce80                hang
 .text.skip_spaces
                0x000000001783ce9c       0x28 lib/built-in.o
                0x000000001783ce9c                skip_spaces
 .text.strim    0x000000001783cec4       0x60 lib/built-in.o
                0x000000001783cec4                strim
 .text.emit     0x000000001783cf24       0x24 lib/built-in.o
 .text.store_char_in_data
                0x000000001783cf48       0x28 lib/built-in.o
 .text.get_escape_char
                0x000000001783cf70       0x80 lib/built-in.o
 .text.relocate
                0x000000001783cff0       0x40 lib/built-in.o
 .text.match    0x000000001783d030      0x3f8 lib/built-in.o
 .text.loop_greedy
                0x000000001783d428       0x94 lib/built-in.o
 .text.loop_non_greedy
                0x000000001783d4bc       0x80 lib/built-in.o
 .text.quantifier
                0x000000001783d53c       0x94 lib/built-in.o
 .text.fixup_branch
                0x000000001783d5d0       0x40 lib/built-in.o
 .text.compile  0x000000001783d610      0x354 lib/built-in.o
 .text.slre_compile
                0x000000001783d964       0xd0 lib/built-in.o
                0x000000001783d964                slre_compile
 .text.slre_match
                0x000000001783da34       0xa0 lib/built-in.o
                0x000000001783da34                slre_match
 .text.strcpy   0x000000001783dad4       0x18 lib/built-in.o
                0x000000001783dad4                strcpy
 .text.strncpy  0x000000001783daec       0x24 lib/built-in.o
                0x000000001783daec                strncpy
 .text.strcat   0x000000001783db10       0x30 lib/built-in.o
                0x000000001783db10                strcat
 .text.strncat  0x000000001783db40       0x54 lib/built-in.o
                0x000000001783db40                strncat
 .text.strcmp   0x000000001783db94       0x28 lib/built-in.o
                0x000000001783db94                strcmp
 .text.strncmp  0x000000001783dbbc       0x3c lib/built-in.o
                0x000000001783dbbc                strncmp
 .text.strchr   0x000000001783dbf8       0x2c lib/built-in.o
                0x000000001783dbf8                strchr
 .text.strlen   0x000000001783dc24       0x20 lib/built-in.o
                0x000000001783dc24                strlen
 .text.strrchr  0x000000001783dc44       0x3c lib/built-in.o
                0x000000001783dc44                strrchr
 .text.strnlen  0x000000001783dc80       0x2c lib/built-in.o
                0x000000001783dc80                strnlen
 .text.strdup   0x000000001783dcac       0x40 lib/built-in.o
                0x000000001783dcac                strdup
 .text.strspn   0x000000001783dcec       0x3c lib/built-in.o
                0x000000001783dcec                strspn
 .text.strpbrk  0x000000001783dd28       0x3c lib/built-in.o
                0x000000001783dd28                strpbrk
 .text.strtok   0x000000001783dd64       0x84 lib/built-in.o
                0x000000001783dd64                strtok
 .text.strsep   0x000000001783dde8       0x38 lib/built-in.o
                0x000000001783dde8                strsep
 .text.memset   0x000000001783de20       0x64 lib/built-in.o
                0x000000001783de20                memset
 .text.memcpy   0x000000001783de84       0x74 lib/built-in.o
                0x000000001783de84                memcpy
 .text.strlcpy  0x000000001783def8       0x50 lib/built-in.o
                0x000000001783def8                strlcpy
 .text.memmove  0x000000001783df48       0x44 lib/built-in.o
                0x000000001783df48                memmove
 .text.memcmp   0x000000001783df8c       0x30 lib/built-in.o
                0x000000001783df8c                memcmp
 .text.strstr   0x000000001783dfbc       0x6c lib/built-in.o
                0x000000001783dfbc                strstr
 .text.memchr   0x000000001783e028       0x30 lib/built-in.o
                0x000000001783e028                memchr
 .text.tick_to_time
                0x000000001783e058       0x64 lib/built-in.o
 .text.get_ticks
                0x000000001783e0bc       0x40 lib/built-in.o
                0x000000001783e0bc                get_ticks
 .text.get_timer
                0x000000001783e0fc       0x18 lib/built-in.o
                0x000000001783e0fc                get_timer
 .text.__udelay
                0x000000001783e114       0x9c lib/built-in.o
                0x000000001783e114                __udelay
 .text.udelay   0x000000001783e1b0       0x30 lib/built-in.o
                0x000000001783e1b0                udelay
 .text.mdelay   0x000000001783e1e0       0x24 lib/built-in.o
                0x000000001783e1e0                mdelay
 .text.put_dec_trunc
                0x000000001783e204       0xd4 lib/built-in.o
 .text.put_dec  0x000000001783e2d8      0x140 lib/built-in.o
 .text.panic_finish
                0x000000001783e418       0x30 lib/built-in.o
 .text.string.isra.0
                0x000000001783e448       0x94 lib/built-in.o
 .text.number.isra.4
                0x000000001783e4dc      0x250 lib/built-in.o
 .text.vsnprintf_internal.isra.6
                0x000000001783e72c      0x604 lib/built-in.o
 .text.simple_strtoul
                0x000000001783ed30       0xb8 lib/built-in.o
                0x000000001783ed30                simple_strtoul
 .text.strict_strtoul
                0x000000001783ede8       0x78 lib/built-in.o
                0x000000001783ede8                strict_strtoul
 .text.simple_strtol
                0x000000001783ee60       0x24 lib/built-in.o
                0x000000001783ee60                simple_strtol
 .text.ustrtoul
                0x000000001783ee84       0x70 lib/built-in.o
                0x000000001783ee84                ustrtoul
 .text.simple_strtoull
                0x000000001783eef4       0xdc lib/built-in.o
                0x000000001783eef4                simple_strtoull
 .text.ustrtoull
                0x000000001783efd0       0x88 lib/built-in.o
                0x000000001783efd0                ustrtoull
 .text.vsprintf
                0x000000001783f058        0x4 lib/built-in.o
                0x000000001783f058                vsprintf
 .text.sprintf  0x000000001783f05c       0x28 lib/built-in.o
                0x000000001783f05c                sprintf
 .text.panic    0x000000001783f084       0x1c lib/built-in.o
                0x000000001783f084                panic
 .text.simple_itoa
                0x000000001783f0a0       0x54 lib/built-in.o
                0x000000001783f0a0                simple_itoa
 .text.str2off  0x000000001783f0f4       0x40 lib/built-in.o
                0x000000001783f0f4                str2off
 .text.compute_ip_checksum
                0x000000001783f134       0x6c net/built-in.o
                0x000000001783f134                compute_ip_checksum
 .text.ip_checksum_ok
                0x000000001783f1a0       0x1c net/built-in.o
                0x000000001783f1a0                ip_checksum_ok
 .text.arp_init
                0x000000001783f1bc       0x50 net/built-in.o
                0x000000001783f1bc                arp_init
 .text.arp_raw_request
                0x000000001783f20c       0xc0 net/built-in.o
                0x000000001783f20c                arp_raw_request
 .text.arp_request
                0x000000001783f2cc       0x84 net/built-in.o
                0x000000001783f2cc                arp_request
 .text.arp_timeout_check
                0x000000001783f350       0x7c net/built-in.o
                0x000000001783f350                arp_timeout_check
 .text.arp_receive
                0x000000001783f3cc      0x218 net/built-in.o
                0x000000001783f3cc                arp_receive
 .text.dhcp_process_options
                0x000000001783f5e4      0x218 net/built-in.o
 .text.dhcp_handler
                0x000000001783f7fc      0x4a8 net/built-in.o
 .text.bootp_reset
                0x000000001783fca4       0x44 net/built-in.o
                0x000000001783fca4                bootp_reset
 .text.bootp_request
                0x000000001783fce8      0x294 net/built-in.o
                0x000000001783fce8                bootp_request
 .text.bootp_timeout_handler
                0x000000001783ff7c       0x68 net/built-in.o
 .text.dhcp_request
                0x000000001783ffe4        0x4 net/built-in.o
                0x000000001783ffe4                dhcp_request
 .text.__def_eth_init
                0x000000001783ffe8        0x8 net/built-in.o
 .text.eth_parse_enetaddr
                0x000000001783fff0       0x5c net/built-in.o
                0x000000001783fff0                eth_parse_enetaddr
 .text.on_ethaddr
                0x000000001784004c       0x90 net/built-in.o
 .text.eth_getenv_enetaddr
                0x00000000178400dc       0x5c net/built-in.o
                0x00000000178400dc                eth_getenv_enetaddr
 .text.eth_setenv_enetaddr
                0x0000000017840138       0x34 net/built-in.o
                0x0000000017840138                eth_setenv_enetaddr
 .text.eth_getenv_enetaddr_by_index
                0x000000001784016c       0x4c net/built-in.o
                0x000000001784016c                eth_getenv_enetaddr_by_index
 .text.eth_get_dev_by_name
                0x00000000178401b8       0x84 net/built-in.o
                0x00000000178401b8                eth_get_dev_by_name
 .text.eth_get_dev_by_index
                0x000000001784023c       0x40 net/built-in.o
                0x000000001784023c                eth_get_dev_by_index
 .text.eth_get_dev_index
                0x000000001784027c       0x1c net/built-in.o
                0x000000001784027c                eth_get_dev_index
 .text.eth_write_hwaddr
                0x0000000017840298      0x248 net/built-in.o
                0x0000000017840298                eth_write_hwaddr
 .text.eth_halt
                0x00000000178404e0       0x30 net/built-in.o
                0x00000000178404e0                eth_halt
 .text.eth_send
                0x0000000017840510       0x3c net/built-in.o
                0x0000000017840510                eth_send
 .text.eth_rx   0x000000001784054c       0x24 net/built-in.o
                0x000000001784054c                eth_rx
 .text.eth_get_name
                0x0000000017840570       0x20 net/built-in.o
                0x0000000017840570                eth_get_name
 .text.eth_current_changed
                0x0000000017840590       0x6c net/built-in.o
 .text.eth_register
                0x00000000178405fc       0x7c net/built-in.o
                0x00000000178405fc                eth_register
 .text.eth_unregister
                0x0000000017840678       0x98 net/built-in.o
                0x0000000017840678                eth_unregister
 .text.eth_initialize
                0x0000000017840710      0x194 net/built-in.o
                0x0000000017840710                eth_initialize
 .text.eth_try_another
                0x00000000178408a4       0x88 net/built-in.o
                0x00000000178408a4                eth_try_another
 .text.eth_init
                0x000000001784092c       0x7c net/built-in.o
                0x000000001784092c                eth_init
 .text.eth_set_current
                0x00000000178409a8       0x98 net/built-in.o
                0x00000000178409a8                eth_set_current
 .text.net_clear_handlers
                0x0000000017840a40       0x34 net/built-in.o
 .text.start_again_timeout_handler
                0x0000000017840a74       0x14 net/built-in.o
 .text.dummy_handler
                0x0000000017840a88        0x4 net/built-in.o
 .text.on_ipaddr
                0x0000000017840a8c       0x30 net/built-in.o
 .text.on_gatewayip
                0x0000000017840abc       0x30 net/built-in.o
 .text.on_netmask
                0x0000000017840aec       0x30 net/built-in.o
 .text.on_serverip
                0x0000000017840b1c       0x30 net/built-in.o
 .text.net_init_loop
                0x0000000017840b4c       0x28 net/built-in.o
 .text.net_auto_load
                0x0000000017840b74       0x64 net/built-in.o
                0x0000000017840b74                net_auto_load
 .text.net_init
                0x0000000017840bd8       0x70 net/built-in.o
                0x0000000017840bd8                net_init
 .text.net_start_again
                0x0000000017840c48      0x168 net/built-in.o
                0x0000000017840c48                net_start_again
 .text.net_loop
                0x0000000017840db0      0x368 net/built-in.o
                0x0000000017840db0                net_loop
 .text.net_set_udp_handler
                0x0000000017841118       0x20 net/built-in.o
                0x0000000017841118                net_set_udp_handler
 .text.net_get_arp_handler
                0x0000000017841138       0x10 net/built-in.o
                0x0000000017841138                net_get_arp_handler
 .text.net_set_timeout_handler
                0x0000000017841148       0x60 net/built-in.o
                0x0000000017841148                net_set_timeout_handler
 .text.net_process_received_packet
                0x00000000178411a8      0x2a8 net/built-in.o
                0x00000000178411a8                net_process_received_packet
 .text.net_eth_hdr_size
                0x0000000017841450       0x3c net/built-in.o
                0x0000000017841450                net_eth_hdr_size
 .text.net_set_ether
                0x000000001784148c       0x98 net/built-in.o
                0x000000001784148c                net_set_ether
 .text.net_update_ether
                0x0000000017841524       0x7c net/built-in.o
                0x0000000017841524                net_update_ether
 .text.net_set_ip_header
                0x00000000178415a0       0x88 net/built-in.o
                0x00000000178415a0                net_set_ip_header
 .text.net_set_udp_header
                0x0000000017841628       0x84 net/built-in.o
                0x0000000017841628                net_set_udp_header
 .text.net_send_udp_packet
                0x00000000178416ac      0x108 net/built-in.o
                0x00000000178416ac                net_send_udp_packet
 .text.copy_filename
                0x00000000178417b4       0x44 net/built-in.o
                0x00000000178417b4                copy_filename
 .text.on_bootfile
                0x00000000178417f8       0x34 net/built-in.o
 .text.ip_to_string
                0x000000001784182c       0x3c net/built-in.o
                0x000000001784182c                ip_to_string
 .text.string_to_vlan
                0x0000000017841868       0x50 net/built-in.o
                0x0000000017841868                string_to_vlan
 .text.on_nvlan
                0x00000000178418b8       0x30 net/built-in.o
 .text.on_vlan  0x00000000178418e8       0x30 net/built-in.o
 .text.rpc_lookup_reply
                0x0000000017841918       0xb0 net/built-in.o
 .text.nfs_mount_reply
                0x00000000178419c8       0xa4 net/built-in.o
 .text.nfs_umountall_reply
                0x0000000017841a6c       0x94 net/built-in.o
 .text.nfs_lookup_reply
                0x0000000017841b00       0x94 net/built-in.o
 .text.nfs_readlink_reply
                0x0000000017841b94       0xf8 net/built-in.o
 .text.basename
                0x0000000017841c8c       0x3c net/built-in.o
 .text.rpc_add_credentials
                0x0000000017841cc8       0xb4 net/built-in.o
 .text.rpc_req  0x0000000017841d7c       0xfc net/built-in.o
 .text.nfs_mount_req
                0x0000000017841e78       0x98 net/built-in.o
 .text.nfs_umountall_req
                0x0000000017841f10       0x60 net/built-in.o
 .text.nfs_lookup_req
                0x0000000017841f70       0xac net/built-in.o
 .text.nfs_read_req
                0x000000001784201c       0x78 net/built-in.o
 .text.nfs_readlink_req
                0x0000000017842094       0x58 net/built-in.o
 .text.nfs_read_reply.isra.0
                0x00000000178420ec      0x138 net/built-in.o
 .text.nfs_send
                0x0000000017842224      0x114 net/built-in.o
 .text.nfs_handler
                0x0000000017842338      0x220 net/built-in.o
 .text.nfs_timeout_handler
                0x0000000017842558       0x64 net/built-in.o
 .text.nfs_start
                0x00000000178425bc      0x250 net/built-in.o
                0x00000000178425bc                nfs_start
 .text.ping_timeout_handler
                0x000000001784280c       0x1c net/built-in.o
 .text.ping_start
                0x0000000017842828      0x11c net/built-in.o
                0x0000000017842828                ping_start
 .text.ping_receive
                0x0000000017842944       0xdc net/built-in.o
                0x0000000017842944                ping_receive
 .text.tftp_send
                0x0000000017842a20      0x1c4 net/built-in.o
 .text.tftp_handler
                0x0000000017842be4      0x398 net/built-in.o
 .text.tftp_timeout_handler
                0x0000000017842f7c       0x88 net/built-in.o
 .text.tftp_start
                0x0000000017843004      0x33c net/built-in.o
                0x0000000017843004                tftp_start
 .text.do_dm_dump_devres
                0x0000000017843340        0x8 test/dm/built-in.o
 .text.do_dm    0x0000000017843348       0x74 test/dm/built-in.o
 .text.do_dm_dump_uclass
                0x00000000178433bc       0x10 test/dm/built-in.o
 .text.do_dm_dump_all
                0x00000000178433cc       0x10 test/dm/built-in.o
 .text.raise    0x00000000178433dc       0x1c arch/arm/lib/eabi_compat.o
                0x00000000178433dc                raise
 .text          0x00000000178433f8       0xc8 /home/rex/openrex-bsp/build-openrex/tmp/sysroots/imx6q-openrex/usr/lib/arm-poky-linux-gnueabi/5.2.0/libgcc.a(_udivsi3.o)
                0x00000000178433f8                __udivsi3
                0x00000000178433f8                __aeabi_uidiv
                0x00000000178434a0                __aeabi_uidivmod
 .text          0x00000000178434c0       0xfc /home/rex/openrex-bsp/build-openrex/tmp/sysroots/imx6q-openrex/usr/lib/arm-poky-linux-gnueabi/5.2.0/libgcc.a(_divsi3.o)
                0x00000000178434c0                __aeabi_idiv
                0x00000000178434c0                __divsi3
                0x000000001784359c                __aeabi_idivmod
 .text          0x00000000178435bc       0x1c /home/rex/openrex-bsp/build-openrex/tmp/sysroots/imx6q-openrex/usr/lib/arm-poky-linux-gnueabi/5.2.0/libgcc.a(_lshrdi3.o)
                0x00000000178435bc                __aeabi_llsr
                0x00000000178435bc                __lshrdi3
 .text          0x00000000178435d8       0x1c /home/rex/openrex-bsp/build-openrex/tmp/sysroots/imx6q-openrex/usr/lib/arm-poky-linux-gnueabi/5.2.0/libgcc.a(_ashldi3.o)
                0x00000000178435d8                __ashldi3
                0x00000000178435d8                __aeabi_llsl
 .text          0x00000000178435f4       0x10 /home/rex/openrex-bsp/build-openrex/tmp/sysroots/imx6q-openrex/usr/lib/arm-poky-linux-gnueabi/5.2.0/libgcc.a(_dvmd_lnx.o)
                0x00000000178435f4                __aeabi_ldiv0
                0x00000000178435f4                __aeabi_idiv0

.glue_7         0x0000000017843604        0x0
 .glue_7        0x0000000017843604        0x0 linker stubs

.glue_7t        0x0000000017843604        0x0
 .glue_7t       0x0000000017843604        0x0 linker stubs

.vfp11_veneer   0x0000000017843604        0x0
 .vfp11_veneer  0x0000000017843604        0x0 linker stubs

.v4_bx          0x0000000017843604        0x0
 .v4_bx         0x0000000017843604        0x0 linker stubs

.iplt           0x0000000017843604        0x0
 .iplt          0x0000000017843604        0x0 arch/arm/cpu/armv7/start.o
                0x0000000017843604                . = ALIGN (0x4)

.rodata         0x0000000017843608    0x10851
 *(SORT(.rodata*))
 .rodata.ecspi3_pads
                0x0000000017843608       0x20 board/fedevel/mx6openrex/built-in.o
 .rodata.enet_pads
                0x0000000017843628       0x80 board/fedevel/mx6openrex/built-in.o
 .rodata.pcie_pads
                0x00000000178436a8       0x10 board/fedevel/mx6openrex/built-in.o
                0x00000000178436a8                pcie_pads
 .rodata.peripheral_reset_pad
                0x00000000178436b8        0x8 board/fedevel/mx6openrex/built-in.o
 .rodata.uart1_pads
                0x00000000178436c0       0x10 board/fedevel/mx6openrex/built-in.o
 .rodata.usb_hc1_pads
                0x00000000178436d0        0x8 board/fedevel/mx6openrex/built-in.o
 .rodata.usb_otg_pads
                0x00000000178436d8       0x10 board/fedevel/mx6openrex/built-in.o
 .rodata.usdhc2_pads
                0x00000000178436e8       0x38 board/fedevel/mx6openrex/built-in.o
 .rodata        0x0000000017843720       0x80 arch/arm/lib/built-in.o
 .rodata        0x00000000178437a0       0x30 drivers/built-in.o
 .rodata.CSWTCH.13
                0x00000000178437d0       0x88 arch/arm/imx-common/built-in.o
 .rodata.CSWTCH.27
                0x0000000017843858       0x14 common/built-in.o
 .rodata.CSWTCH.28
                0x000000001784386c       0x20 common/built-in.o
 .rodata.asix_dongles
                0x000000001784388c       0x68 drivers/usb/eth/built-in.o
 .rodata.block_drvr
                0x00000000178438f4       0x30 disk/built-in.o
 .rodata.board_boot_modes
                0x0000000017843924       0x10 board/fedevel/mx6openrex/built-in.o
 .rodata.boot_os
                0x0000000017843934       0x60 common/built-in.o
 .rodata.ci_ep_init
                0x0000000017843994       0xb4 drivers/usb/gadget/built-in.o
 .rodata.cmd_dispatch_info
                0x0000000017843a48       0x30 drivers/usb/gadget/built-in.o
 .rodata.cpu_ctrl_mask
                0x0000000017843a78       0x10 arch/arm/cpu/armv7/built-in.o
 .rodata.cpu_reset_mask
                0x0000000017843a88       0x10 arch/arm/cpu/armv7/built-in.o
 .rodata.crc_table
                0x0000000017843a98      0x400 lib/built-in.o
 .rodata.default_ehci_ops
                0x0000000017843e98       0x10 drivers/usb/host/built-in.o
                0x0000000017843e98                default_ehci_ops
 .rodata.desc_and_len_tbl
                0x0000000017843ea8       0x30 common/built-in.o
 .rodata.dfu_state
                0x0000000017843ed8       0x2c drivers/usb/gadget/built-in.o
 .rodata.env_flags_varaccess_mask
                0x0000000017843f04       0x10 common/built-in.o
 .rodata.esdhc_ops
                0x0000000017843f14       0x14 drivers/mmc/built-in.o
 .rodata.ext_csd_bits.8887
                0x0000000017843f28       0x14 drivers/mmc/built-in.o
 .rodata.ext_to_hostcaps.8888
                0x0000000017843f3c       0x1c drivers/mmc/built-in.o
 .rodata.fbase  0x0000000017843f58       0x10 drivers/mmc/built-in.o
 .rodata.fdt_errtable
                0x0000000017843f68       0x34 lib/built-in.o
 .rodata.gpio_ports
                0x0000000017843f9c       0x1c drivers/gpio/built-in.o
 .rodata.imx6_thermal_plat
                0x0000000017843fb8        0xc arch/arm/cpu/armv7/built-in.o
 .rodata.imx_thermal_ops
                0x0000000017843fc4        0x4 drivers/built-in.o
 .rodata.multipliers
                0x0000000017843fc8       0x40 drivers/mmc/built-in.o
 .rodata.op_adv
                0x0000000017844008      0x100 common/built-in.o
                0x0000000017844008                op_adv
 .rodata.op_table
                0x0000000017844108       0x68 common/built-in.o
 .rodata.phy_bases
                0x0000000017844170        0x8 drivers/usb/host/built-in.o
 .rodata.prob_dev
                0x0000000017844178       0x18 drivers/usb/eth/built-in.o
 .rodata.reg_0_5_desc_tbl
                0x0000000017844190       0x30 common/built-in.o
 .rodata.reg_0_desc_tbl
                0x00000000178441c0       0x78 common/built-in.o
 .rodata.reg_1_desc_tbl
                0x0000000017844238       0xc0 common/built-in.o
 .rodata.reg_2_desc_tbl
                0x00000000178442f8        0xc common/built-in.o
 .rodata.reg_3_desc_tbl
                0x0000000017844304       0x24 common/built-in.o
 .rodata.reg_4_desc_tbl
                0x0000000017844328       0x90 common/built-in.o
 .rodata.reg_5_desc_tbl
                0x00000000178443b8       0x90 common/built-in.o
 .rodata.root_info
                0x0000000017844448        0x8 drivers/built-in.o
 .rodata.soc_boot_modes
                0x0000000017844450       0x60 arch/arm/cpu/armv7/built-in.o
                0x0000000017844450                soc_boot_modes
 .rodata.spi_bases
                0x00000000178444b0       0x14 drivers/spi/built-in.o
 .rodata.spi_flash_params_table
                0x00000000178444c4      0x138 drivers/mtd/spi/built-in.o
                0x00000000178444c4                spi_flash_params_table
 .rodata.uimage_arch
                0x00000000178445fc      0x12c common/built-in.o
 .rodata.uimage_comp
                0x0000000017844728       0x54 common/built-in.o
 .rodata.uimage_os
                0x000000001784477c       0x6c common/built-in.o
 .rodata.uimage_type
                0x00000000178447e8      0x138 common/built-in.o
 .rodata.widths.8889
                0x0000000017844920       0x14 drivers/mmc/built-in.o
 .rodata.crc16_tab
                0x0000000017844934      0x200 lib/built-in.o
 .rodata.crc16_table
                0x0000000017844b34      0x200 fs/built-in.o
 .rodata.dbase.7125
                0x0000000017844d34       0x40 lib/built-in.o
 .rodata.dext.7126
                0x0000000017844d74       0x40 lib/built-in.o
 .rodata.distfix
                0x0000000017844db4       0x80 lib/built-in.o
 .rodata.i2c_clk_div
                0x0000000017844e34       0xc8 drivers/i2c/built-in.o
 .rodata.lbase.7123
                0x0000000017844efc       0x3e lib/built-in.o
 .rodata.lenfix
                0x0000000017844f3a      0x800 lib/built-in.o
 .rodata.lext.7124
                0x000000001784573a       0x3e lib/built-in.o
 .rodata.order.7219
                0x0000000017845778       0x26 lib/built-in.o
 .rodata        0x000000001784579e        0x5 common/built-in.o
 .rodata        0x00000000178457a3       0x3f drivers/usb/host/built-in.o
 .rodata        0x00000000178457e2        0x7 net/built-in.o
 .rodata.CSWTCH.66
                0x00000000178457e9       0x16 common/built-in.o
 .rodata.__FUNCTION__.10180
                0x00000000178457ff       0x11 drivers/usb/gadget/built-in.o
 .rodata.__FUNCTION__.7832
                0x0000000017845810       0x17 common/built-in.o
 .rodata.__FUNCTION__.9079
                0x0000000017845827       0x14 net/built-in.o
 .rodata.__func__.10001
                0x000000001784583b       0x14 drivers/built-in.o
 .rodata.__func__.10316
                0x000000001784584f        0xf drivers/usb/gadget/built-in.o
 .rodata.__func__.6964
                0x000000001784585e       0x10 common/built-in.o
 .rodata.__func__.6980
                0x000000001784586e        0xb common/built-in.o
 .rodata.__func__.6987
                0x0000000017845879       0x16 arch/arm/cpu/armv7/built-in.o
 .rodata.__func__.6987
                0x000000001784588f        0xb common/built-in.o
 .rodata.__func__.6997
                0x000000001784589a       0x1b arch/arm/lib/built-in.o
 .rodata.__func__.7031
                0x00000000178458b5        0xa drivers/built-in.o
 .rodata.__func__.7060
                0x00000000178458bf        0xb drivers/built-in.o
 .rodata.__func__.7078
                0x00000000178458ca        0xa drivers/built-in.o
 .rodata.__func__.7089
                0x00000000178458d4        0xe drivers/built-in.o
 .rodata.__func__.7152
                0x00000000178458e2        0xf fs/built-in.o
 .rodata.__func__.7185
                0x00000000178458f1       0x13 fs/built-in.o
 .rodata.__func__.7194
                0x0000000017845904       0x14 fs/built-in.o
 .rodata.__func__.7321
                0x0000000017845918        0xe common/built-in.o
 .rodata.__func__.7358
                0x0000000017845926        0xe common/built-in.o
 .rodata.__func__.7532
                0x0000000017845934       0x1c fs/built-in.o
 .rodata.__func__.7649
                0x0000000017845950        0xe common/built-in.o
 .rodata.__func__.7709
                0x000000001784595e       0x18 common/built-in.o
 .rodata.__func__.7739
                0x0000000017845976        0xa drivers/usb/gadget/built-in.o
 .rodata.__func__.7805
                0x0000000017845980       0x13 drivers/usb/gadget/built-in.o
 .rodata.__func__.8119
                0x0000000017845993       0x10 drivers/net/built-in.o
 .rodata.__func__.8469
                0x00000000178459a3        0xe drivers/built-in.o
 .rodata.__func__.8555
                0x00000000178459b1       0x13 drivers/built-in.o
 .rodata.__func__.8564
                0x00000000178459c4       0x11 drivers/built-in.o
 .rodata.__func__.8576
                0x00000000178459d5        0xd drivers/built-in.o
 .rodata.__func__.8838
                0x00000000178459e2       0x12 drivers/i2c/built-in.o
 .rodata.__func__.8872
                0x00000000178459f4        0xd drivers/i2c/built-in.o
 .rodata.__func__.8917
                0x0000000017845a01       0x12 drivers/i2c/built-in.o
 .rodata.__func__.9066
                0x0000000017845a13        0xc common/built-in.o
 .rodata.__func__.9120
                0x0000000017845a1f       0x14 common/built-in.o
 .rodata.__func__.9224
                0x0000000017845a33       0x19 common/built-in.o
 .rodata.__func__.9464
                0x0000000017845a4c        0xc drivers/usb/gadget/built-in.o
 .rodata.__func__.9517
                0x0000000017845a58       0x17 drivers/usb/host/built-in.o
 .rodata.__func__.9652
                0x0000000017845a6f       0x13 drivers/built-in.o
 .rodata.__func__.9731
                0x0000000017845a82       0x16 drivers/built-in.o
 .rodata.__func__.9744
                0x0000000017845a98        0xc drivers/built-in.o
 .rodata.__func__.9749
                0x0000000017845aa4       0x12 drivers/built-in.o
 .rodata.__func__.9773
                0x0000000017845ab6        0xa drivers/built-in.o
 .rodata.__func__.9796
                0x0000000017845ac0        0x9 drivers/built-in.o
 .rodata.__func__.9805
                0x0000000017845ac9       0x10 drivers/built-in.o
 .rodata.__func__.9830
                0x0000000017845ad9       0x14 drivers/built-in.o
 .rodata.__func__.9894
                0x0000000017845aed       0x10 drivers/built-in.o
 .rodata.__func__.9908
                0x0000000017845afd        0xd drivers/built-in.o
 .rodata.__func__.9933
                0x0000000017845b0a        0xc drivers/built-in.o
 .rodata.__func__.9951
                0x0000000017845b16       0x15 drivers/built-in.o
 .rodata.__func__.9965
                0x0000000017845b2b       0x18 drivers/built-in.o
 .rodata.__func__.9986
                0x0000000017845b43       0x14 drivers/built-in.o
 .rodata._ctype
                0x0000000017845b57      0x100 lib/built-in.o
                0x0000000017845b57                _ctype
 .rodata.bank_lookup
                0x0000000017845c57        0x2 arch/arm/imx-common/built-in.o
 .rodata.col_lookup
                0x0000000017845c59        0x8 arch/arm/imx-common/built-in.o
 .rodata.default_environment
                0x0000000017845c61     0x1454 common/built-in.o
                0x0000000017845c61                default_environment
 .rodata.dfu_func
                0x00000000178470b5        0x9 drivers/usb/gadget/built-in.o
 .rodata.dfu_name
                0x00000000178470be       0x18 drivers/usb/gadget/built-in.o
 .rodata.digits.6844
                0x00000000178470d6       0x10 lib/built-in.o
 .rodata.dirletter.8162
                0x00000000178470e6        0x4 drivers/usb/gadget/built-in.o
 .rodata.env_flags_varaccess_rep
                0x00000000178470ea        0x5 common/built-in.o
 .rodata.env_flags_vartype_rep
                0x00000000178470ef        0x7 common/built-in.o
 .rodata.erase_seq
                0x00000000178470f6        0x4 common/built-in.o
 .rodata.fastboot_name
                0x00000000178470fa       0x11 drivers/usb/gadget/built-in.o
 .rodata.fsg_string_interface
                0x000000001784710b        0xd drivers/usb/gadget/built-in.o
 .rodata.hex_asc
                0x0000000017847118       0x11 lib/built-in.o
 .rodata.manufacturer
                0x0000000017847129        0x4 drivers/usb/gadget/built-in.o
 .rodata.names.6908
                0x000000001784712d        0x6 lib/built-in.o
 .rodata.net_bcast_ethaddr
                0x0000000017847133        0x6 net/built-in.o
                0x0000000017847133                net_bcast_ethaddr
 .rodata.product
                0x0000000017847139       0x14 drivers/usb/gadget/built-in.o
 .rodata.spi_read_cmds_array
                0x000000001784714d        0x6 drivers/mtd/spi/built-in.o
 .rodata.str1.1
                0x0000000017847153      0x238 arch/arm/cpu/armv7/built-in.o
                                        0x242 (size before relaxing)
 .rodata.str1.1
                0x000000001784738b      0x1f1 arch/arm/imx-common/built-in.o
                                        0x21e (size before relaxing)
 .rodata.str1.1
                0x000000001784757c      0x389 arch/arm/lib/built-in.o
                                        0x42c (size before relaxing)
 .rodata.str1.1
                0x0000000017847905       0x4c board/fedevel/mx6openrex/built-in.o
 .rodata.str1.1
                0x0000000017847951     0x81ec common/built-in.o
                                       0x8b7b (size before relaxing)
 .rodata.str1.1
                0x000000001784fb3d      0x45e disk/built-in.o
                                        0x496 (size before relaxing)
 .rodata.str1.1
                0x000000001784ff9b      0xe5d drivers/built-in.o
                                        0xf04 (size before relaxing)
 .rodata.str1.1
                0x0000000017850df8       0xdf drivers/i2c/built-in.o
 .rodata.str1.1
                0x0000000017850ed7      0x4a5 drivers/mmc/built-in.o
                                        0x50d (size before relaxing)
 .rodata.str1.1
                0x000000001785137c      0x12d drivers/mtd/built-in.o
 .rodata.str1.1
                0x00000000178514a9      0x1c8 drivers/mtd/spi/built-in.o
                                        0x1cb (size before relaxing)
 .rodata.str1.1
                0x0000000017851671      0x165 drivers/net/built-in.o
                                        0x16d (size before relaxing)
 .rodata.str1.1
                0x00000000178517d6      0x19c drivers/net/phy/built-in.o
                                        0x1b2 (size before relaxing)
 .rodata.str1.1
                0x0000000017851972       0x57 drivers/serial/built-in.o
                                         0x92 (size before relaxing)
 .rodata.str1.1
                0x00000000178519c9       0xdc drivers/spi/built-in.o
 .rodata.str1.1
                0x0000000017851aa5       0xeb drivers/usb/eth/built-in.o
 .rodata.str1.1
                0x0000000017851b90      0x4f9 drivers/usb/gadget/built-in.o
                                        0x57a (size before relaxing)
 .rodata.str1.1
                0x0000000017852089      0x238 drivers/usb/host/built-in.o
 .rodata.str1.1
                0x00000000178522c1      0xa98 fs/built-in.o
                                        0xb2d (size before relaxing)
 .rodata.str1.1
                0x0000000017852d59      0x7db lib/built-in.o
                                        0x853 (size before relaxing)
 .rodata.str1.1
                0x0000000017853534      0x7c0 net/built-in.o
                                        0x933 (size before relaxing)
 .rodata.str1.1
                0x0000000017853cf4       0xdc test/dm/built-in.o
                                         0xe2 (size before relaxing)
 .rodata.str1.1
                0x0000000017853dd0       0x1b arch/arm/lib/eabi_compat.o
 .rodata.tab_seq
                0x0000000017853deb        0x9 common/built-in.o
 .rodata.us_direction
                0x0000000017853df4       0x20 common/built-in.o
 .rodata.vendor_id.8013
                0x0000000017853e14        0x9 drivers/usb/gadget/built-in.o
 .rodata.version_string
                0x0000000017853e1d       0x3c common/built-in.o
                0x0000000017853e1d                version_string

.hash           0x0000000017853e5c       0x2c
 .hash          0x0000000017853e5c       0x2c arch/arm/cpu/armv7/start.o
                0x0000000017853e88                . = ALIGN (0x4)

.data           0x0000000017853e88     0x24c4
 *(.data*)
 .data.imx_ccm  0x0000000017853e88        0x4 arch/arm/cpu/armv7/built-in.o
                0x0000000017853e88                imx_ccm
 .data.reset_cause
                0x0000000017853e8c        0x4 arch/arm/imx-common/built-in.o
 .data.usdhc_cfg
                0x0000000017853e90       0x2c board/fedevel/mx6openrex/built-in.o
                0x0000000017853e90                usdhc_cfg
 .data.hash_algo
                0x0000000017853ebc       0x1c common/built-in.o
 .data.reserved_list
                0x0000000017853ed8       0x84 common/built-in.o
 .data.init_sequence_f
                0x0000000017853f5c       0x9c common/built-in.o
 .data.init_sequence_r
                0x0000000017853ff8       0x64 common/built-in.o
                0x0000000017853ff8                init_sequence_r
 .data.bootm_help_text
                0x000000001785405c      0x38b common/built-in.o
 *fill*         0x00000000178543e7        0x1 
 .data.cmd_bootm_sub
                0x00000000178543e8       0xfc common/built-in.o
 .data.bootz_help_text
                0x00000000178544e4      0x208 common/built-in.o
 .data.first_call
                0x00000000178546ec        0x8 common/built-in.o
 .data.env_name_spec
                0x00000000178546f4        0x4 common/built-in.o
                0x00000000178546f4                env_name_spec
 .data.source_help_text
                0x00000000178546f8       0x4e common/built-in.o
 .data.root.7677
                0x0000000017854746        0x2 common/built-in.o
 .data.tabs.7760
                0x0000000017854748       0x21 common/built-in.o
 .data.fdt_help_text
                0x0000000017854769      0x5e3 common/built-in.o
 .data.i2c_help_text
                0x0000000017854d4c      0x37c common/built-in.o
 .data.cmd_i2c_sub
                0x00000000178550c8      0x16c common/built-in.o
 .data.i2c_dp_last_length
                0x0000000017855234        0x4 common/built-in.o
 .data.do_echo  0x0000000017855238        0x4 common/built-in.o
 .data.dp_last_length
                0x000000001785523c        0x4 common/built-in.o
 .data.curr_device
                0x0000000017855240        0x4 common/built-in.o
 .data.cmd_mmc  0x0000000017855244      0x118 common/built-in.o
 .data.cpu_help_text
                0x000000001785535c      0x117 common/built-in.o
 *fill*         0x0000000017855473        0x1 
 .data.sata_curr_device
                0x0000000017855474        0x4 common/built-in.o
 .data.usb_stor_curr_dev
                0x0000000017855478        0x4 common/built-in.o
 .data.ums_dev  0x000000001785547c       0x18 common/built-in.o
 .data.imgextract_help_text
                0x0000000017855494       0x55 common/built-in.o
 .data.env_help_text
                0x00000000178554e9      0x24f common/built-in.o
 .data.env_id   0x0000000017855738        0x4 common/built-in.o
 .data.cmd_env_sub
                0x000000001785573c      0x118 common/built-in.o
 .data.env_htab
                0x0000000017855854       0x10 common/built-in.o
                0x0000000017855854                env_htab
 .data.av_      0x0000000017855864      0x408 common/built-in.o
 .data.sbrk_base
                0x0000000017855c6c        0x4 common/built-in.o
 .data.trim_threshold
                0x0000000017855c70        0x4 common/built-in.o
 .data.load_addr
                0x0000000017855c74        0x4 common/built-in.o
                0x0000000017855c74                load_addr
 .data.stdio_names
                0x0000000017855c78        0xc common/built-in.o
                0x0000000017855c78                stdio_names
 .data.hist_cur
                0x0000000017855c84        0x4 common/built-in.o
 .data.dfu_list
                0x0000000017855c88        0x8 drivers/built-in.o
 .data.mxc_i2c_buses
                0x0000000017855c90       0x70 drivers/i2c/built-in.o
 .data.cur_dev_num
                0x0000000017855d00        0x4 drivers/mmc/built-in.o
 .data.phy_drivers
                0x0000000017855d04        0x8 drivers/net/phy/built-in.o
 .data.genphy_driver
                0x0000000017855d0c       0x34 drivers/net/phy/built-in.o
 .data.ksz8895_driver
                0x0000000017855d40       0x34 drivers/net/phy/built-in.o
 .data.KSZ8081_driver
                0x0000000017855d74       0x34 drivers/net/phy/built-in.o
 .data.KSZ804_driver
                0x0000000017855da8       0x34 drivers/net/phy/built-in.o
 .data.ksz9031_driver
                0x0000000017855ddc       0x34 drivers/net/phy/built-in.o
 .data.KS8721_driver
                0x0000000017855e10       0x34 drivers/net/phy/built-in.o
 .data.mxc_serial_drv
                0x0000000017855e44       0x30 drivers/serial/built-in.o
 .data.ep0_desc
                0x0000000017855e74        0x9 drivers/usb/gadget/built-in.o
 *fill*         0x0000000017855e7d        0x3 
 .data.ci_ep_ops
                0x0000000017855e80       0x28 drivers/usb/gadget/built-in.o
 .data.ci_udc_ops
                0x0000000017855ea8       0x24 drivers/usb/gadget/built-in.o
 .data.controller
                0x0000000017855ecc      0x190 drivers/usb/gadget/built-in.o
 .data.device_desc
                0x000000001785605c       0x12 drivers/usb/gadget/built-in.o
 *fill*         0x000000001785606e        0x2 
 .data.g_dnl_string_tab
                0x0000000017856070        0x8 drivers/usb/gadget/built-in.o
 .data.g_dnl_composite_strings
                0x0000000017856078        0x8 drivers/usb/gadget/built-in.o
 .data.g_dnl_driver
                0x0000000017856080       0x20 drivers/usb/gadget/built-in.o
 .data.composite_driver
                0x00000000178560a0       0x24 drivers/usb/gadget/built-in.o
 .data.g_dnl_string_defs
                0x00000000178560c4       0x20 drivers/usb/gadget/built-in.o
 .data.dfu_strings
                0x00000000178560e4        0x8 drivers/usb/gadget/built-in.o
 .data.dfu_intf_runtime
                0x00000000178560ec        0x9 drivers/usb/gadget/built-in.o
 *fill*         0x00000000178560f5        0x3 
 .data.stringtab_dfu
                0x00000000178560f8        0x8 drivers/usb/gadget/built-in.o
 .data.dfu_generic_strings
                0x0000000017856100        0x8 drivers/usb/gadget/built-in.o
 .data.dfu_runtime_descs
                0x0000000017856108        0x8 drivers/usb/gadget/built-in.o
 .data.stringtab_dfu_generic
                0x0000000017856110        0x8 drivers/usb/gadget/built-in.o
 .data.strings_dfu_generic
                0x0000000017856118       0x10 drivers/usb/gadget/built-in.o
 .data.fsg_hs_bulk_out_desc
                0x0000000017856128        0x9 drivers/usb/gadget/built-in.o
 .data.fsg_fs_bulk_out_desc
                0x0000000017856131        0x9 drivers/usb/gadget/built-in.o
 .data.fsg_intf_desc
                0x000000001785613a        0x9 drivers/usb/gadget/built-in.o
 *fill*         0x0000000017856143        0x1 
 .data.fsg_stringtab
                0x0000000017856144        0x8 drivers/usb/gadget/built-in.o
 .data.fsg_fs_function
                0x000000001785614c       0x10 drivers/usb/gadget/built-in.o
 .data.fsg_hs_function
                0x000000001785615c       0x10 drivers/usb/gadget/built-in.o
 .data.fsg_fs_bulk_in_desc
                0x000000001785616c        0x9 drivers/usb/gadget/built-in.o
 *fill*         0x0000000017856175        0x3 
 .data.fsg_strings
                0x0000000017856178       0x10 drivers/usb/gadget/built-in.o
 .data.fsg_hs_bulk_in_desc
                0x0000000017856188        0x9 drivers/usb/gadget/built-in.o
 *fill*         0x0000000017856191        0x3 
 .data.fsg_strings_array
                0x0000000017856194        0x8 drivers/usb/gadget/built-in.o
 .data.fastboot_string_defs
                0x000000001785619c       0x10 drivers/usb/gadget/built-in.o
 .data.fb_runtime_descs
                0x00000000178561ac       0x10 drivers/usb/gadget/built-in.o
 .data.fastboot_strings
                0x00000000178561bc        0x8 drivers/usb/gadget/built-in.o
 .data.hs_ep_out
                0x00000000178561c4        0x9 drivers/usb/gadget/built-in.o
 .data.fs_ep_out
                0x00000000178561cd        0x9 drivers/usb/gadget/built-in.o
 .data.fs_ep_in
                0x00000000178561d6        0x9 drivers/usb/gadget/built-in.o
 *fill*         0x00000000178561df        0x1 
 .data.stringtab_fastboot
                0x00000000178561e0        0x8 drivers/usb/gadget/built-in.o
 .data.interface_desc
                0x00000000178561e8        0x9 drivers/usb/gadget/built-in.o
 .data.descriptor
                0x00000000178561f1       0x38 drivers/usb/host/built-in.o
 *fill*         0x0000000017856229        0x3 
 .data.fstypes  0x000000001785622c       0x84 fs/built-in.o
 .data.prev_inode_bitmap_index.7486
                0x00000000178562b0        0x4 fs/built-in.o
 .data.ext4fs_indir3_blkno
                0x00000000178562b4        0x4 fs/built-in.o
                0x00000000178562b4                ext4fs_indir3_blkno
 .data.prev_bg_bitmap_index.7467
                0x00000000178562b8        0x4 fs/built-in.o
 .data.ext4fs_indir1_blkno
                0x00000000178562bc        0x4 fs/built-in.o
                0x00000000178562bc                ext4fs_indir1_blkno
 .data.ext4fs_indir2_blkno
                0x00000000178562c0        0x4 fs/built-in.o
                0x00000000178562c0                ext4fs_indir2_blkno
 .data.prev_bg_bmap_idx.7254
                0x00000000178562c4        0x4 fs/built-in.o
 .data.prev_bg_bmap_idx.7202
                0x00000000178562c8        0x4 fs/built-in.o
 .data.prev_bg_bmap_idx.7222
                0x00000000178562cc        0x4 fs/built-in.o
 .data.prev_bg_bmap_idx.7188
                0x00000000178562d0        0x4 fs/built-in.o
 .data.first_node
                0x00000000178562d4        0x4 fs/built-in.o
 .data.net_native_vlan
                0x00000000178562d8        0x2 net/built-in.o
                0x00000000178562d8                net_native_vlan
 .data.net_our_vlan
                0x00000000178562da        0x2 net/built-in.o
                0x00000000178562da                net_our_vlan
 .data.first_call.7063
                0x00000000178562dc        0x4 net/built-in.o
 .data.nfs_offset
                0x00000000178562e0        0x4 net/built-in.o
 .data.tftp_block_size_option
                0x00000000178562e4        0x2 net/built-in.o
 *fill*         0x00000000178562e6        0x2 
 .data.tftp_timeout_count_max
                0x00000000178562e8        0x4 net/built-in.o
                0x00000000178562e8                tftp_timeout_count_max
 .data.timeout_ms
                0x00000000178562ec        0x4 net/built-in.o
 .data.tftp_block_size
                0x00000000178562f0        0x2 net/built-in.o
 *fill*         0x00000000178562f2        0x2 
 .data.timeout_count_max
                0x00000000178562f4        0x4 net/built-in.o
 .data.test_commands
                0x00000000178562f8       0x54 test/dm/built-in.o

.got            0x000000001785634c        0x0
 .got           0x000000001785634c        0x0 arch/arm/cpu/armv7/start.o

.got.plt        0x000000001785634c        0xc
 .got.plt       0x000000001785634c        0xc arch/arm/cpu/armv7/start.o
                0x000000001785634c                _GLOBAL_OFFSET_TABLE_

.igot.plt       0x0000000017856358        0x0
 .igot.plt      0x0000000017856358        0x0 arch/arm/cpu/armv7/start.o
                0x0000000017856358                . = ALIGN (0x4)
                0x0000000017856358                . = .
                0x0000000017856358                . = ALIGN (0x4)

.u_boot_list    0x0000000017856358      0xb54
 *(SORT(.u_boot_list*))
 .u_boot_list_2_cmd_1
                0x0000000017856358        0x0 common/built-in.o
 .u_boot_list_2_cmd_2_base
                0x0000000017856358       0x1c common/built-in.o
                0x0000000017856358                _u_boot_list_2_cmd_2_base
 .u_boot_list_2_cmd_2_bdinfo
                0x0000000017856374       0x1c common/built-in.o
                0x0000000017856374                _u_boot_list_2_cmd_2_bdinfo
 .u_boot_list_2_cmd_2_bmode
                0x0000000017856390       0x1c arch/arm/imx-common/built-in.o
                0x0000000017856390                _u_boot_list_2_cmd_2_bmode
 .u_boot_list_2_cmd_2_boot
                0x00000000178563ac       0x1c common/built-in.o
                0x00000000178563ac                _u_boot_list_2_cmd_2_boot
 .u_boot_list_2_cmd_2_bootd
                0x00000000178563c8       0x1c common/built-in.o
                0x00000000178563c8                _u_boot_list_2_cmd_2_bootd
 .u_boot_list_2_cmd_2_bootm
                0x00000000178563e4       0x1c common/built-in.o
                0x00000000178563e4                _u_boot_list_2_cmd_2_bootm
 .u_boot_list_2_cmd_2_bootp
                0x0000000017856400       0x1c common/built-in.o
                0x0000000017856400                _u_boot_list_2_cmd_2_bootp
 .u_boot_list_2_cmd_2_bootz
                0x000000001785641c       0x1c common/built-in.o
                0x000000001785641c                _u_boot_list_2_cmd_2_bootz
 .u_boot_list_2_cmd_2_clocks
                0x0000000017856438       0x1c arch/arm/cpu/armv7/built-in.o
                0x0000000017856438                _u_boot_list_2_cmd_2_clocks
 .u_boot_list_2_cmd_2_cmp
                0x0000000017856454       0x1c common/built-in.o
                0x0000000017856454                _u_boot_list_2_cmd_2_cmp
 .u_boot_list_2_cmd_2_coninfo
                0x0000000017856470       0x1c common/built-in.o
                0x0000000017856470                _u_boot_list_2_cmd_2_coninfo
 .u_boot_list_2_cmd_2_cp
                0x000000001785648c       0x1c common/built-in.o
                0x000000001785648c                _u_boot_list_2_cmd_2_cp
 .u_boot_list_2_cmd_2_cpu
                0x00000000178564a8       0x1c common/built-in.o
                0x00000000178564a8                _u_boot_list_2_cmd_2_cpu
 .u_boot_list_2_cmd_2_crc32
                0x00000000178564c4       0x1c common/built-in.o
                0x00000000178564c4                _u_boot_list_2_cmd_2_crc32
 .u_boot_list_2_cmd_2_dcache
                0x00000000178564e0       0x1c common/built-in.o
                0x00000000178564e0                _u_boot_list_2_cmd_2_dcache
 .u_boot_list_2_cmd_2_dfu
                0x00000000178564fc       0x1c common/built-in.o
                0x00000000178564fc                _u_boot_list_2_cmd_2_dfu
 .u_boot_list_2_cmd_2_dhcp
                0x0000000017856518       0x1c common/built-in.o
                0x0000000017856518                _u_boot_list_2_cmd_2_dhcp
 .u_boot_list_2_cmd_2_dm
                0x0000000017856534       0x1c test/dm/built-in.o
                0x0000000017856534                _u_boot_list_2_cmd_2_dm
 .u_boot_list_2_cmd_2_echo
                0x0000000017856550       0x1c common/built-in.o
                0x0000000017856550                _u_boot_list_2_cmd_2_echo
 .u_boot_list_2_cmd_2_editenv
                0x000000001785656c       0x1c common/built-in.o
                0x000000001785656c                _u_boot_list_2_cmd_2_editenv
 .u_boot_list_2_cmd_2_env
                0x0000000017856588       0x1c common/built-in.o
                0x0000000017856588                _u_boot_list_2_cmd_2_env
 .u_boot_list_2_cmd_2_exit
                0x00000000178565a4       0x1c common/built-in.o
                0x00000000178565a4                _u_boot_list_2_cmd_2_exit
 .u_boot_list_2_cmd_2_ext2load
                0x00000000178565c0       0x1c common/built-in.o
                0x00000000178565c0                _u_boot_list_2_cmd_2_ext2load
 .u_boot_list_2_cmd_2_ext2ls
                0x00000000178565dc       0x1c common/built-in.o
                0x00000000178565dc                _u_boot_list_2_cmd_2_ext2ls
 .u_boot_list_2_cmd_2_ext4load
                0x00000000178565f8       0x1c common/built-in.o
                0x00000000178565f8                _u_boot_list_2_cmd_2_ext4load
 .u_boot_list_2_cmd_2_ext4ls
                0x0000000017856614       0x1c common/built-in.o
                0x0000000017856614                _u_boot_list_2_cmd_2_ext4ls
 .u_boot_list_2_cmd_2_ext4size
                0x0000000017856630       0x1c common/built-in.o
                0x0000000017856630                _u_boot_list_2_cmd_2_ext4size
 .u_boot_list_2_cmd_2_ext4write
                0x000000001785664c       0x1c common/built-in.o
                0x000000001785664c                _u_boot_list_2_cmd_2_ext4write
 .u_boot_list_2_cmd_2_false
                0x0000000017856668       0x1c common/built-in.o
                0x0000000017856668                _u_boot_list_2_cmd_2_false
 .u_boot_list_2_cmd_2_fastboot
                0x0000000017856684       0x1c common/built-in.o
                0x0000000017856684                _u_boot_list_2_cmd_2_fastboot
 .u_boot_list_2_cmd_2_fatinfo
                0x00000000178566a0       0x1c common/built-in.o
                0x00000000178566a0                _u_boot_list_2_cmd_2_fatinfo
 .u_boot_list_2_cmd_2_fatload
                0x00000000178566bc       0x1c common/built-in.o
                0x00000000178566bc                _u_boot_list_2_cmd_2_fatload
 .u_boot_list_2_cmd_2_fatls
                0x00000000178566d8       0x1c common/built-in.o
                0x00000000178566d8                _u_boot_list_2_cmd_2_fatls
 .u_boot_list_2_cmd_2_fatsize
                0x00000000178566f4       0x1c common/built-in.o
                0x00000000178566f4                _u_boot_list_2_cmd_2_fatsize
 .u_boot_list_2_cmd_2_fatwrite
                0x0000000017856710       0x1c common/built-in.o
                0x0000000017856710                _u_boot_list_2_cmd_2_fatwrite
 .u_boot_list_2_cmd_2_fdt
                0x000000001785672c       0x1c common/built-in.o
                0x000000001785672c                _u_boot_list_2_cmd_2_fdt
 .u_boot_list_2_cmd_2_fstype
                0x0000000017856748       0x1c common/built-in.o
                0x0000000017856748                _u_boot_list_2_cmd_2_fstype
 .u_boot_list_2_cmd_2_fuse
                0x0000000017856764       0x1c common/built-in.o
                0x0000000017856764                _u_boot_list_2_cmd_2_fuse
 .u_boot_list_2_cmd_2_go
                0x0000000017856780       0x1c common/built-in.o
                0x0000000017856780                _u_boot_list_2_cmd_2_go
 .u_boot_list_2_cmd_2_gpio
                0x000000001785679c       0x1c common/built-in.o
                0x000000001785679c                _u_boot_list_2_cmd_2_gpio
 .u_boot_list_2_cmd_2_help
                0x00000000178567b8       0x1c common/built-in.o
                0x00000000178567b8                _u_boot_list_2_cmd_2_help
 .u_boot_list_2_cmd_2_i2c
                0x00000000178567d4       0x1c common/built-in.o
                0x00000000178567d4                _u_boot_list_2_cmd_2_i2c
 .u_boot_list_2_cmd_2_icache
                0x00000000178567f0       0x1c common/built-in.o
                0x00000000178567f0                _u_boot_list_2_cmd_2_icache
 .u_boot_list_2_cmd_2_iminfo
                0x000000001785680c       0x1c common/built-in.o
                0x000000001785680c                _u_boot_list_2_cmd_2_iminfo
 .u_boot_list_2_cmd_2_imxtract
                0x0000000017856828       0x1c common/built-in.o
                0x0000000017856828                _u_boot_list_2_cmd_2_imxtract
 .u_boot_list_2_cmd_2_itest
                0x0000000017856844       0x1c common/built-in.o
                0x0000000017856844                _u_boot_list_2_cmd_2_itest
 .u_boot_list_2_cmd_2_load
                0x0000000017856860       0x1c common/built-in.o
                0x0000000017856860                _u_boot_list_2_cmd_2_load
 .u_boot_list_2_cmd_2_loadb
                0x000000001785687c       0x1c common/built-in.o
                0x000000001785687c                _u_boot_list_2_cmd_2_loadb
 .u_boot_list_2_cmd_2_loads
                0x0000000017856898       0x1c common/built-in.o
                0x0000000017856898                _u_boot_list_2_cmd_2_loads
 .u_boot_list_2_cmd_2_loadx
                0x00000000178568b4       0x1c common/built-in.o
                0x00000000178568b4                _u_boot_list_2_cmd_2_loadx
 .u_boot_list_2_cmd_2_loady
                0x00000000178568d0       0x1c common/built-in.o
                0x00000000178568d0                _u_boot_list_2_cmd_2_loady
 .u_boot_list_2_cmd_2_loop
                0x00000000178568ec       0x1c common/built-in.o
                0x00000000178568ec                _u_boot_list_2_cmd_2_loop
 .u_boot_list_2_cmd_2_ls
                0x0000000017856908       0x1c common/built-in.o
                0x0000000017856908                _u_boot_list_2_cmd_2_ls
 .u_boot_list_2_cmd_2_md
                0x0000000017856924       0x1c common/built-in.o
                0x0000000017856924                _u_boot_list_2_cmd_2_md
 .u_boot_list_2_cmd_2_mdio
                0x0000000017856940       0x1c common/built-in.o
                0x0000000017856940                _u_boot_list_2_cmd_2_mdio
 .u_boot_list_2_cmd_2_mii
                0x000000001785695c       0x1c common/built-in.o
                0x000000001785695c                _u_boot_list_2_cmd_2_mii
 .u_boot_list_2_cmd_2_mm
                0x0000000017856978       0x1c common/built-in.o
                0x0000000017856978                _u_boot_list_2_cmd_2_mm
 .u_boot_list_2_cmd_2_mmc
                0x0000000017856994       0x1c common/built-in.o
                0x0000000017856994                _u_boot_list_2_cmd_2_mmc
 .u_boot_list_2_cmd_2_mmcinfo
                0x00000000178569b0       0x1c common/built-in.o
                0x00000000178569b0                _u_boot_list_2_cmd_2_mmcinfo
 .u_boot_list_2_cmd_2_mw
                0x00000000178569cc       0x1c common/built-in.o
                0x00000000178569cc                _u_boot_list_2_cmd_2_mw
 .u_boot_list_2_cmd_2_nfs
                0x00000000178569e8       0x1c common/built-in.o
                0x00000000178569e8                _u_boot_list_2_cmd_2_nfs
 .u_boot_list_2_cmd_2_nm
                0x0000000017856a04       0x1c common/built-in.o
                0x0000000017856a04                _u_boot_list_2_cmd_2_nm
 .u_boot_list_2_cmd_2_ping
                0x0000000017856a20       0x1c common/built-in.o
                0x0000000017856a20                _u_boot_list_2_cmd_2_ping
 .u_boot_list_2_cmd_2_printenv
                0x0000000017856a3c       0x1c common/built-in.o
                0x0000000017856a3c                _u_boot_list_2_cmd_2_printenv
 .u_boot_list_2_cmd_2_question_mark
                0x0000000017856a58       0x1c common/built-in.o
                0x0000000017856a58                _u_boot_list_2_cmd_2_question_mark
 .u_boot_list_2_cmd_2_reset
                0x0000000017856a74       0x1c common/built-in.o
                0x0000000017856a74                _u_boot_list_2_cmd_2_reset
 .u_boot_list_2_cmd_2_run
                0x0000000017856a90       0x1c common/built-in.o
                0x0000000017856a90                _u_boot_list_2_cmd_2_run
 .u_boot_list_2_cmd_2_sata
                0x0000000017856aac       0x1c common/built-in.o
                0x0000000017856aac                _u_boot_list_2_cmd_2_sata
 .u_boot_list_2_cmd_2_save
                0x0000000017856ac8       0x1c common/built-in.o
                0x0000000017856ac8                _u_boot_list_2_cmd_2_save
 .u_boot_list_2_cmd_2_saveenv
                0x0000000017856ae4       0x1c common/built-in.o
                0x0000000017856ae4                _u_boot_list_2_cmd_2_saveenv
 .u_boot_list_2_cmd_2_setenv
                0x0000000017856b00       0x1c common/built-in.o
                0x0000000017856b00                _u_boot_list_2_cmd_2_setenv
 .u_boot_list_2_cmd_2_setexpr
                0x0000000017856b1c       0x1c common/built-in.o
                0x0000000017856b1c                _u_boot_list_2_cmd_2_setexpr
 .u_boot_list_2_cmd_2_sf
                0x0000000017856b38       0x1c common/built-in.o
                0x0000000017856b38                _u_boot_list_2_cmd_2_sf
 .u_boot_list_2_cmd_2_showvar
                0x0000000017856b54       0x1c common/built-in.o
                0x0000000017856b54                _u_boot_list_2_cmd_2_showvar
 .u_boot_list_2_cmd_2_size
                0x0000000017856b70       0x1c common/built-in.o
                0x0000000017856b70                _u_boot_list_2_cmd_2_size
 .u_boot_list_2_cmd_2_sleep
                0x0000000017856b8c       0x1c common/built-in.o
                0x0000000017856b8c                _u_boot_list_2_cmd_2_sleep
 .u_boot_list_2_cmd_2_source
                0x0000000017856ba8       0x1c common/built-in.o
                0x0000000017856ba8                _u_boot_list_2_cmd_2_source
 .u_boot_list_2_cmd_2_test
                0x0000000017856bc4       0x1c common/built-in.o
                0x0000000017856bc4                _u_boot_list_2_cmd_2_test
 .u_boot_list_2_cmd_2_tftpboot
                0x0000000017856be0       0x1c common/built-in.o
                0x0000000017856be0                _u_boot_list_2_cmd_2_tftpboot
 .u_boot_list_2_cmd_2_true
                0x0000000017856bfc       0x1c common/built-in.o
                0x0000000017856bfc                _u_boot_list_2_cmd_2_true
 .u_boot_list_2_cmd_2_ums
                0x0000000017856c18       0x1c common/built-in.o
                0x0000000017856c18                _u_boot_list_2_cmd_2_ums
 .u_boot_list_2_cmd_2_usb
                0x0000000017856c34       0x1c common/built-in.o
                0x0000000017856c34                _u_boot_list_2_cmd_2_usb
 .u_boot_list_2_cmd_2_usbboot
                0x0000000017856c50       0x1c common/built-in.o
                0x0000000017856c50                _u_boot_list_2_cmd_2_usbboot
 .u_boot_list_2_cmd_2_version
                0x0000000017856c6c       0x1c common/built-in.o
                0x0000000017856c6c                _u_boot_list_2_cmd_2_version
 .u_boot_list_2_cmd_3
                0x0000000017856c88        0x0 common/built-in.o
 .u_boot_list_2_driver_1
                0x0000000017856c88        0x0 drivers/built-in.o
 .u_boot_list_2_driver_2_imx_thermal
                0x0000000017856c88       0x44 drivers/built-in.o
                0x0000000017856c88                _u_boot_list_2_driver_2_imx_thermal
 .u_boot_list_2_driver_2_root_driver
                0x0000000017856ccc       0x44 drivers/built-in.o
                0x0000000017856ccc                _u_boot_list_2_driver_2_root_driver
 .u_boot_list_2_driver_3
                0x0000000017856d10        0x0 drivers/built-in.o
 .u_boot_list_2_driver_info_1
                0x0000000017856d10        0x0 drivers/built-in.o
 .u_boot_list_2_driver_info_2_imx6_thermal
                0x0000000017856d10        0x8 arch/arm/cpu/armv7/built-in.o
                0x0000000017856d10                _u_boot_list_2_driver_info_2_imx6_thermal
 .u_boot_list_2_driver_info_3
                0x0000000017856d18        0x0 drivers/built-in.o
 .u_boot_list_2_env_clbk_1
                0x0000000017856d18        0x0 common/built-in.o
 .u_boot_list_2_env_clbk_2_baudrate
                0x0000000017856d18        0x8 drivers/serial/built-in.o
                0x0000000017856d18                _u_boot_list_2_env_clbk_2_baudrate
 .u_boot_list_2_env_clbk_2_bootfile
                0x0000000017856d20        0x8 net/built-in.o
                0x0000000017856d20                _u_boot_list_2_env_clbk_2_bootfile
 .u_boot_list_2_env_clbk_2_callbacks
                0x0000000017856d28        0x8 common/built-in.o
                0x0000000017856d28                _u_boot_list_2_env_clbk_2_callbacks
 .u_boot_list_2_env_clbk_2_console
                0x0000000017856d30        0x8 common/built-in.o
                0x0000000017856d30                _u_boot_list_2_env_clbk_2_console
 .u_boot_list_2_env_clbk_2_ethaddr
                0x0000000017856d38        0x8 net/built-in.o
                0x0000000017856d38                _u_boot_list_2_env_clbk_2_ethaddr
 .u_boot_list_2_env_clbk_2_flags
                0x0000000017856d40        0x8 common/built-in.o
                0x0000000017856d40                _u_boot_list_2_env_clbk_2_flags
 .u_boot_list_2_env_clbk_2_gatewayip
                0x0000000017856d48        0x8 net/built-in.o
                0x0000000017856d48                _u_boot_list_2_env_clbk_2_gatewayip
 .u_boot_list_2_env_clbk_2_ipaddr
                0x0000000017856d50        0x8 net/built-in.o
                0x0000000017856d50                _u_boot_list_2_env_clbk_2_ipaddr
 .u_boot_list_2_env_clbk_2_loadaddr
                0x0000000017856d58        0x8 common/built-in.o
                0x0000000017856d58                _u_boot_list_2_env_clbk_2_loadaddr
 .u_boot_list_2_env_clbk_2_netmask
                0x0000000017856d60        0x8 net/built-in.o
                0x0000000017856d60                _u_boot_list_2_env_clbk_2_netmask
 .u_boot_list_2_env_clbk_2_nvlan
                0x0000000017856d68        0x8 net/built-in.o
                0x0000000017856d68                _u_boot_list_2_env_clbk_2_nvlan
 .u_boot_list_2_env_clbk_2_serverip
                0x0000000017856d70        0x8 net/built-in.o
                0x0000000017856d70                _u_boot_list_2_env_clbk_2_serverip
 .u_boot_list_2_env_clbk_2_vlan
                0x0000000017856d78        0x8 net/built-in.o
                0x0000000017856d78                _u_boot_list_2_env_clbk_2_vlan
 .u_boot_list_2_env_clbk_3
                0x0000000017856d80        0x0 common/built-in.o
 .u_boot_list_2_g_dnl_bind_callbacks_1
                0x0000000017856d80        0x0 drivers/usb/gadget/built-in.o
 .u_boot_list_2_g_dnl_bind_callbacks_2___usb_function_name_usb_dnl_dfu
                0x0000000017856d80        0x8 drivers/usb/gadget/built-in.o
                0x0000000017856d80                _u_boot_list_2_g_dnl_bind_callbacks_2___usb_function_name_usb_dnl_dfu
 .u_boot_list_2_g_dnl_bind_callbacks_2___usb_function_name_usb_dnl_fastboot
                0x0000000017856d88        0x8 drivers/usb/gadget/built-in.o
                0x0000000017856d88                _u_boot_list_2_g_dnl_bind_callbacks_2___usb_function_name_usb_dnl_fastboot
 .u_boot_list_2_g_dnl_bind_callbacks_2___usb_function_name_usb_dnl_ums
                0x0000000017856d90        0x8 drivers/usb/gadget/built-in.o
                0x0000000017856d90                _u_boot_list_2_g_dnl_bind_callbacks_2___usb_function_name_usb_dnl_ums
 .u_boot_list_2_g_dnl_bind_callbacks_3
                0x0000000017856d98        0x0 drivers/usb/gadget/built-in.o
 .u_boot_list_2_i2c_1
                0x0000000017856d98        0x0 common/built-in.o
 .u_boot_list_2_i2c_1
                0x0000000017856d98        0x0 drivers/i2c/built-in.o
 .u_boot_list_2_i2c_2_mxc0
                0x0000000017856d98       0x2c drivers/i2c/built-in.o
                0x0000000017856d98                _u_boot_list_2_i2c_2_mxc0
 .u_boot_list_2_i2c_2_mxc1
                0x0000000017856dc4       0x2c drivers/i2c/built-in.o
                0x0000000017856dc4                _u_boot_list_2_i2c_2_mxc1
 .u_boot_list_2_i2c_2_mxc2
                0x0000000017856df0       0x2c drivers/i2c/built-in.o
                0x0000000017856df0                _u_boot_list_2_i2c_2_mxc2
 .u_boot_list_2_i2c_3
                0x0000000017856e1c        0x0 common/built-in.o
 .u_boot_list_2_i2c_3
                0x0000000017856e1c        0x0 drivers/i2c/built-in.o
 .u_boot_list_2_uclass_1
                0x0000000017856e1c        0x0 drivers/built-in.o
 .u_boot_list_2_uclass_2_root
                0x0000000017856e1c       0x48 drivers/built-in.o
                0x0000000017856e1c                _u_boot_list_2_uclass_2_root
 .u_boot_list_2_uclass_2_thermal
                0x0000000017856e64       0x48 drivers/built-in.o
                0x0000000017856e64                _u_boot_list_2_uclass_2_thermal
 .u_boot_list_2_uclass_3
                0x0000000017856eac        0x0 drivers/built-in.o
                0x0000000017856eac                . = ALIGN (0x4)

.image_copy_end
                0x0000000017856eac        0x0
 *(.__image_copy_end)
 .__image_copy_end
                0x0000000017856eac        0x0 arch/arm/lib/built-in.o

.rel_dyn_start  0x0000000017856eac        0x0
 *(.__rel_dyn_start)
 .__rel_dyn_start
                0x0000000017856eac        0x0 arch/arm/lib/built-in.o

.rel.dyn        0x0000000017856eac     0x94f8
 *(.rel*)
 .rel.got       0x0000000017856eac        0x0 arch/arm/cpu/armv7/start.o
 .rel.plt       0x0000000017856eac        0x0 arch/arm/cpu/armv7/start.o
 .rel.iplt      0x0000000017856eac        0x0 arch/arm/cpu/armv7/start.o
 .rel.text      0x0000000017856eac       0x20 arch/arm/cpu/armv7/start.o
 .rel.text.invalidate_dcache_range
                0x0000000017856ecc       0x18 arch/arm/cpu/armv7/start.o
 .rel.text.get_ipg_clk
                0x0000000017856ee4        0x8 arch/arm/cpu/armv7/start.o
 .rel.text.get_uart_clk
                0x0000000017856eec        0x8 arch/arm/cpu/armv7/start.o
 .rel.text.mxc_get_pll_pfd
                0x0000000017856ef4        0x8 arch/arm/cpu/armv7/start.o
 .rel.text.get_usdhc_clk
                0x0000000017856efc       0x28 arch/arm/cpu/armv7/start.o
 .rel.text.enable_ocotp_clk
                0x0000000017856f24        0x8 arch/arm/cpu/armv7/start.o
 .rel.text.enable_usboh3_clk
                0x0000000017856f2c        0x8 arch/arm/cpu/armv7/start.o
 .rel.text.enable_enet_clk
                0x0000000017856f34        0x0 arch/arm/cpu/armv7/start.o
 .rel.text.enable_uart_clk
                0x0000000017856f34        0x0 arch/arm/cpu/armv7/start.o
 .rel.text.enable_usdhc_clk
                0x0000000017856f34        0x0 arch/arm/cpu/armv7/start.o
 .rel.text.enable_i2c_clk
                0x0000000017856f34        0x8 arch/arm/cpu/armv7/start.o
 .rel.text.enable_spi_clk
                0x0000000017856f3c        0x0 arch/arm/cpu/armv7/start.o
 .rel.text.get_periph_clk
                0x0000000017856f3c        0x8 arch/arm/cpu/armv7/start.o
 .rel.text.get_axi_clk
                0x0000000017856f44        0x8 arch/arm/cpu/armv7/start.o
 .rel.text.mxc_get_clock
                0x0000000017856f4c       0x98 arch/arm/cpu/armv7/start.o
 .rel.text.do_mx6_showclocks
                0x0000000017856fe4       0x90 arch/arm/cpu/armv7/start.o
 .rel.text.cpu_reset
                0x0000000017857074        0x8 arch/arm/cpu/armv7/start.o
 .rel.text.cpu_status
                0x000000001785707c       0x10 arch/arm/cpu/armv7/start.o
 .rel.text.cpu_release
                0x000000001785708c        0x8 arch/arm/cpu/armv7/start.o
 .rel.text.cpu_disable
                0x0000000017857094        0x8 arch/arm/cpu/armv7/start.o
 .rel.rodata.soc_boot_modes
                0x000000001785709c       0x58 arch/arm/cpu/armv7/start.o
 .rel.u_boot_list_2_driver_info_2_imx6_thermal
                0x00000000178570f4       0x10 arch/arm/cpu/armv7/start.o
 .rel.u_boot_list_2_cmd_2_clocks
                0x0000000017857104       0x20 arch/arm/cpu/armv7/start.o
 .rel.text.get_imx_reset_cause
                0x0000000017857124        0x0 arch/arm/cpu/armv7/start.o
 .rel.text.imx_ddr_size
                0x0000000017857124       0x10 arch/arm/cpu/armv7/start.o
 .rel.text.get_imx_type
                0x0000000017857134       0x10 arch/arm/cpu/armv7/start.o
 .rel.text.print_cpuinfo
                0x0000000017857144       0xb0 arch/arm/cpu/armv7/start.o
 .rel.text.set_chipselect_size
                0x00000000178571f4        0x0 arch/arm/cpu/armv7/start.o
 .rel.text.force_idle_bus
                0x00000000178571f4        0x0 arch/arm/cpu/armv7/start.o
 .rel.text.setup_i2c
                0x00000000178571f4        0x0 arch/arm/cpu/armv7/start.o
 .rel.text.create_usage
                0x00000000178571f4       0x10 arch/arm/cpu/armv7/start.o
 .rel.text.do_boot_mode
                0x0000000017857204       0x10 arch/arm/cpu/armv7/start.o
 .rel.text.add_board_boot_modes
                0x0000000017857214       0x18 arch/arm/cpu/armv7/start.o
 .rel.rodata.CSWTCH.13
                0x000000001785722c      0x110 arch/arm/cpu/armv7/start.o
 .rel.u_boot_list_2_cmd_2_bmode
                0x000000001785733c       0x18 arch/arm/cpu/armv7/start.o
 .rel.vectors   0x0000000017857354       0x38 arch/arm/cpu/armv7/start.o
 .rel.text.relocate_vectors
                0x000000001785738c       0x20 arch/arm/cpu/armv7/start.o
 .rel.text.boot_jump_linux
                0x00000000178573ac       0x28 arch/arm/cpu/armv7/start.o
 .rel.text.boot_prep_linux
                0x00000000178573d4       0x18 arch/arm/cpu/armv7/start.o
 .rel.text.bootz_setup
                0x00000000178573ec       0x10 arch/arm/cpu/armv7/start.o
 .rel.text.boot_prep_vxworks
                0x00000000178573fc       0x10 arch/arm/cpu/armv7/start.o
 .rel.text.v7_outer_cache_inval_range
                0x000000001785740c       0x18 arch/arm/cpu/armv7/start.o
 .rel.text.interrupt_init
                0x0000000017857424        0x8 arch/arm/cpu/armv7/start.o
 .rel.text.bad_mode
                0x000000001785742c        0x8 arch/arm/cpu/armv7/start.o
 .rel.text.show_regs
                0x0000000017857434       0x60 arch/arm/cpu/armv7/start.o
 .rel.text.do_undefined_instruction
                0x0000000017857494        0x8 arch/arm/cpu/armv7/start.o
 .rel.text.do_software_interrupt
                0x000000001785749c        0x8 arch/arm/cpu/armv7/start.o
 .rel.text.do_prefetch_abort
                0x00000000178574a4        0x8 arch/arm/cpu/armv7/start.o
 .rel.text.do_data_abort
                0x00000000178574ac        0x8 arch/arm/cpu/armv7/start.o
 .rel.text.do_not_used
                0x00000000178574b4        0x8 arch/arm/cpu/armv7/start.o
 .rel.text.do_fiq
                0x00000000178574bc        0x8 arch/arm/cpu/armv7/start.o
 .rel.text.do_irq
                0x00000000178574c4        0x8 arch/arm/cpu/armv7/start.o
 .rel.text.do_reset
                0x00000000178574cc        0x8 arch/arm/cpu/armv7/start.o
 .rel.text.enable_caches
                0x00000000178574d4        0x0 arch/arm/cpu/armv7/start.o
 .rel.rodata    0x00000000178574d4      0x150 arch/arm/cpu/armv7/start.o
 .rel.text.board_mmc_init
                0x0000000017857624       0x10 arch/arm/cpu/armv7/start.o
 .rel.text.board_eth_init
                0x0000000017857634       0x10 arch/arm/cpu/armv7/start.o
 .rel.text.board_early_init_f
                0x0000000017857644        0x8 arch/arm/cpu/armv7/start.o
 .rel.text.board_init
                0x000000001785764c       0x20 arch/arm/cpu/armv7/start.o
 .rel.text.board_late_init
                0x000000001785766c       0x38 arch/arm/cpu/armv7/start.o
 .rel.text.checkboard
                0x00000000178576a4        0x8 arch/arm/cpu/armv7/start.o
 .rel.rodata.board_boot_modes
                0x00000000178576ac        0x8 arch/arm/cpu/armv7/start.o
 .rel.text.jumptable_init
                0x00000000178576b4       0xc8 arch/arm/cpu/armv7/start.o
 .rel.text.hash_lookup_algo
                0x000000001785777c        0x8 arch/arm/cpu/armv7/start.o
 .rel.text.hash_progressive_lookup_algo
                0x0000000017857784        0x0 arch/arm/cpu/armv7/start.o
 .rel.text.hash_show
                0x0000000017857784        0x0 arch/arm/cpu/armv7/start.o
 .rel.text.hash_command
                0x0000000017857784        0x8 arch/arm/cpu/armv7/start.o
 .rel.text.mapset
                0x000000001785778c        0x8 arch/arm/cpu/armv7/start.o
 .rel.text.syntax_err
                0x0000000017857794        0x8 arch/arm/cpu/armv7/start.o
 .rel.text.xmalloc
                0x000000001785779c        0x8 arch/arm/cpu/armv7/start.o
 .rel.text.xrealloc
                0x00000000178577a4        0x8 arch/arm/cpu/armv7/start.o
 .rel.text.done_word
                0x00000000178577ac        0x8 arch/arm/cpu/armv7/start.o
 .rel.text.do_showvar
                0x00000000178577b4       0x20 arch/arm/cpu/armv7/start.o
 .rel.text.is_assignment
                0x00000000178577d4        0x8 arch/arm/cpu/armv7/start.o
 .rel.text.file_get
                0x00000000178577dc       0x30 arch/arm/cpu/armv7/start.o
 .rel.text.b_addqchr
                0x000000001785780c        0x8 arch/arm/cpu/armv7/start.o
 .rel.text.get_local_var
                0x0000000017857814       0x20 arch/arm/cpu/armv7/start.o
 .rel.text.set_local_var
                0x0000000017857834       0x20 arch/arm/cpu/armv7/start.o
 .rel.text.insert_var_value_sub
                0x0000000017857854        0x8 arch/arm/cpu/armv7/start.o
 .rel.text.unset_local_var
                0x000000001785785c        0x0 arch/arm/cpu/armv7/start.o
 .rel.text.parse_string_outer
                0x000000001785785c       0x18 arch/arm/cpu/armv7/start.o
 .rel.text.run_list_real
                0x0000000017857874       0x40 arch/arm/cpu/armv7/start.o
 .rel.text.parse_stream_outer
                0x00000000178578b4       0x68 arch/arm/cpu/armv7/start.o
 .rel.text.parse_file_outer
                0x000000001785791c       0x10 arch/arm/cpu/armv7/start.o
 .rel.text.u_boot_hush_start
                0x000000001785792c       0x18 arch/arm/cpu/armv7/start.o
 .rel.text.bootdelay_process
                0x0000000017857944       0x18 arch/arm/cpu/armv7/start.o
 .rel.text.autoboot_command
                0x000000001785795c       0x18 arch/arm/cpu/armv7/start.o
 .rel.text.setup_mon_len
                0x0000000017857974       0x10 arch/arm/cpu/armv7/start.o
 .rel.text.announce_dram_init
                0x0000000017857984        0x8 arch/arm/cpu/armv7/start.o
 .rel.text.init_func_i2c
                0x000000001785798c       0x10 arch/arm/cpu/armv7/start.o
 .rel.text.init_baud_rate
                0x000000001785799c        0x8 arch/arm/cpu/armv7/start.o
 .rel.text.show_dram_config
                0x00000000178579a4        0x8 arch/arm/cpu/armv7/start.o
 .rel.text.board_init_f
                0x00000000178579ac        0x8 arch/arm/cpu/armv7/start.o
 .rel.text.initr_reloc_global_data
                0x00000000178579b4       0x18 arch/arm/cpu/armv7/start.o
 .rel.text.initr_net
                0x00000000178579cc        0x8 arch/arm/cpu/armv7/start.o
 .rel.text.initr_ethaddr
                0x00000000178579d4        0x8 arch/arm/cpu/armv7/start.o
 .rel.text.initr_env
                0x00000000178579dc       0x10 arch/arm/cpu/armv7/start.o
 .rel.text.initr_mmc
                0x00000000178579ec        0x8 arch/arm/cpu/armv7/start.o
 .rel.text.board_init_r
                0x00000000178579f4        0x8 arch/arm/cpu/armv7/start.o
 .rel.text.do_go
                0x00000000178579fc       0x10 arch/arm/cpu/armv7/start.o
 .rel.text.do_bootm
                0x0000000017857a0c       0x18 arch/arm/cpu/armv7/start.o
 .rel.text.do_bootd
                0x0000000017857a24        0x8 arch/arm/cpu/armv7/start.o
 .rel.text.image_info
                0x0000000017857a2c       0x40 arch/arm/cpu/armv7/start.o
 .rel.text.do_iminfo
                0x0000000017857a6c        0x8 arch/arm/cpu/armv7/start.o
 .rel.text.bootm_maybe_autostart
                0x0000000017857a74       0x20 arch/arm/cpu/armv7/start.o
 .rel.text.do_bootz
                0x0000000017857a94       0x10 arch/arm/cpu/armv7/start.o
 .rel.text.bootm_find_images
                0x0000000017857aa4       0x18 arch/arm/cpu/armv7/start.o
 .rel.text.bootm_decomp_image
                0x0000000017857abc       0x48 arch/arm/cpu/armv7/start.o
 .rel.text.do_bootm_states
                0x0000000017857b04       0xc0 arch/arm/cpu/armv7/start.o
 .rel.text.do_bootm_rtems
                0x0000000017857bc4        0x8 arch/arm/cpu/armv7/start.o
 .rel.text.do_bootm_plan9
                0x0000000017857bcc       0x18 arch/arm/cpu/armv7/start.o
 .rel.text.do_bootm_standalone
                0x0000000017857be4       0x18 arch/arm/cpu/armv7/start.o
 .rel.text.do_bootm_netbsd
                0x0000000017857bfc       0x18 arch/arm/cpu/armv7/start.o
 .rel.text.do_bootvx_fdt
                0x0000000017857c14       0x38 arch/arm/cpu/armv7/start.o
 .rel.text.bootm_os_get_boot_func
                0x0000000017857c4c        0x8 arch/arm/cpu/armv7/start.o
 .rel.text.do_help
                0x0000000017857c54       0x10 arch/arm/cpu/armv7/start.o
 .rel.text.do_version
                0x0000000017857c64       0x20 arch/arm/cpu/armv7/start.o
 .rel.text.regex_callback
                0x0000000017857c84       0x10 arch/arm/cpu/armv7/start.o
 .rel.text.env_attr_lookup
                0x0000000017857c94        0x8 arch/arm/cpu/armv7/start.o
 .rel.text.find_env_callback
                0x0000000017857c9c       0x10 arch/arm/cpu/armv7/start.o
 .rel.text.on_callbacks
                0x0000000017857cac       0x20 arch/arm/cpu/armv7/start.o
 .rel.text.set_callback
                0x0000000017857ccc        0x8 arch/arm/cpu/armv7/start.o
 .rel.text.env_callback_init
                0x0000000017857cd4       0x20 arch/arm/cpu/armv7/start.o
 .rel.text.skip_num
                0x0000000017857cf4        0x8 arch/arm/cpu/armv7/start.o
 .rel.text.on_flags
                0x0000000017857cfc       0x20 arch/arm/cpu/armv7/start.o
 .rel.text.env_flags_parse_vartype
                0x0000000017857d1c       0x10 arch/arm/cpu/armv7/start.o
 .rel.text.env_flags_parse_varaccess
                0x0000000017857d2c       0x10 arch/arm/cpu/armv7/start.o
 .rel.text.set_flags
                0x0000000017857d3c       0x10 arch/arm/cpu/armv7/start.o
 .rel.text.env_flags_init
                0x0000000017857d4c       0x30 arch/arm/cpu/armv7/start.o
 .rel.text.env_flags_validate
                0x0000000017857d7c       0x68 arch/arm/cpu/armv7/start.o
 .rel.text.saveenv
                0x0000000017857de4       0x28 arch/arm/cpu/armv7/start.o
 .rel.text.env_relocate_spec
                0x0000000017857e0c       0x18 arch/arm/cpu/armv7/start.o
 .rel.text.env_init
                0x0000000017857e24        0x8 arch/arm/cpu/armv7/start.o
 .rel.text.source
                0x0000000017857e2c       0x38 arch/arm/cpu/armv7/start.o
 .rel.text.do_source
                0x0000000017857e64        0x8 arch/arm/cpu/armv7/start.o
 .rel.text.print_num
                0x0000000017857e6c        0x8 arch/arm/cpu/armv7/start.o
 .rel.text.do_bdinfo
                0x0000000017857e74       0x98 arch/arm/cpu/armv7/start.o
 .rel.text.parse_argv
                0x0000000017857f0c       0x18 arch/arm/cpu/armv7/start.o
 .rel.text.invalidate_icache_all
                0x0000000017857f24        0x0 arch/arm/cpu/armv7/start.o
 .rel.text.do_icache
                0x0000000017857f24       0x18 arch/arm/cpu/armv7/start.o
 .rel.text.flush_dcache_all
                0x0000000017857f3c        0x0 arch/arm/cpu/armv7/start.o
 .rel.text.do_dcache
                0x0000000017857f3c       0x18 arch/arm/cpu/armv7/start.o
 .rel.text.do_coninfo
                0x0000000017857f54       0x28 arch/arm/cpu/armv7/start.o
 .rel.text.do_echo
                0x0000000017857f7c        0x8 arch/arm/cpu/armv7/start.o
 .rel.text.do_fat_fsinfo
                0x0000000017857f84       0x10 arch/arm/cpu/armv7/start.o
 .rel.text.do_fat_fswrite
                0x0000000017857f94       0x18 arch/arm/cpu/armv7/start.o
 .rel.text.fdt_valid
                0x0000000017857fac       0x28 arch/arm/cpu/armv7/start.o
 .rel.text.is_printable_string
                0x0000000017857fd4        0x8 arch/arm/cpu/armv7/start.o
 .rel.text.print_data
                0x0000000017857fdc       0x58 arch/arm/cpu/armv7/start.o
 .rel.text.set_working_fdt_addr
                0x0000000017858034       0x10 arch/arm/cpu/armv7/start.o
 .rel.text.do_fdt
                0x0000000017858044      0x240 arch/arm/cpu/armv7/start.o
 .rel.text.of_bus_default_count_cells
                0x0000000017858284        0x0 arch/arm/cpu/armv7/start.o
 .rel.text.fdt_find_or_add_subnode
                0x0000000017858284       0x10 arch/arm/cpu/armv7/start.o
 .rel.text.fdt_root
                0x0000000017858294       0x20 arch/arm/cpu/armv7/start.o
 .rel.text.fdt_initrd
                0x00000000178582b4       0x30 arch/arm/cpu/armv7/start.o
 .rel.text.fdt_chosen
                0x00000000178582e4       0x20 arch/arm/cpu/armv7/start.o
 .rel.text.do_fixup_by_path
                0x0000000017858304        0x8 arch/arm/cpu/armv7/start.o
 .rel.text.fdt_fixup_memory_banks
                0x000000001785830c       0x38 arch/arm/cpu/armv7/start.o
 .rel.text.fdt_fixup_ethernet
                0x0000000017858344       0x38 arch/arm/cpu/armv7/start.o
 .rel.text.fdt_del_node_and_alias
                0x000000001785837c        0x0 arch/arm/cpu/armv7/start.o
 .rel.text.fdt_translate_address
                0x000000001785837c        0x0 arch/arm/cpu/armv7/start.o
 .rel.text.fdt_node_offset_by_compat_reg
                0x000000001785837c        0x0 arch/arm/cpu/armv7/start.o
 .rel.text.fdt_set_phandle
                0x000000001785837c        0x0 arch/arm/cpu/armv7/start.o
 .rel.text.fdt_create_phandle
                0x000000001785837c        0x0 arch/arm/cpu/armv7/start.o
 .rel.text.fdt_set_node_status
                0x000000001785837c        0x0 arch/arm/cpu/armv7/start.o
 .rel.text.fdt_verify_alias_address
                0x000000001785837c        0x0 arch/arm/cpu/armv7/start.o
 .rel.text.fdt_get_base_address
                0x000000001785837c        0x0 arch/arm/cpu/armv7/start.o
 .rel.text.fdt_read_range
                0x000000001785837c        0x0 arch/arm/cpu/armv7/start.o
 .rel.text.fdt_setup_simplefb_node
                0x000000001785837c        0x0 arch/arm/cpu/armv7/start.o
 .rel.text.fdt_fixup_display
                0x000000001785837c        0x0 arch/arm/cpu/armv7/start.o
 .rel.text.do_fuse
                0x000000001785837c       0x70 arch/arm/cpu/armv7/start.o
 .rel.text.do_gpio
                0x00000000178583ec       0x20 arch/arm/cpu/armv7/start.o
 .rel.text.do_i2c
                0x000000001785840c        0x8 arch/arm/cpu/armv7/start.o
 .rel.text.do_i2c_probe
                0x0000000017858414       0x10 arch/arm/cpu/armv7/start.o
 .rel.text.do_i2c_bus_speed
                0x0000000017858424       0x18 arch/arm/cpu/armv7/start.o
 .rel.text.do_i2c_show_bus
                0x000000001785843c       0x28 arch/arm/cpu/armv7/start.o
 .rel.text.do_i2c_bus_num
                0x0000000017858464       0x30 arch/arm/cpu/armv7/start.o
 .rel.text.do_i2c_crc
                0x0000000017858494       0x20 arch/arm/cpu/armv7/start.o
 .rel.text.mod_i2c_mem.isra.4
                0x00000000178584b4       0x60 arch/arm/cpu/armv7/start.o
 .rel.text.do_i2c_md
                0x0000000017858514       0x58 arch/arm/cpu/armv7/start.o
 .rel.text.do_i2c_read
                0x000000001785856c       0x10 arch/arm/cpu/armv7/start.o
 .rel.text.do_i2c_mw
                0x000000001785857c       0x10 arch/arm/cpu/armv7/start.o
 .rel.text.do_i2c_write
                0x000000001785858c       0x18 arch/arm/cpu/armv7/start.o
 .rel.text.do_i2c_loop
                0x00000000178585a4       0x10 arch/arm/cpu/armv7/start.o
 .rel.text.binary_test
                0x00000000178585b4       0x70 arch/arm/cpu/armv7/start.o
 .rel.text.do_itest
                0x0000000017858624       0x40 arch/arm/cpu/armv7/start.o
 .rel.text.bin_data_init
                0x0000000017858664       0x18 arch/arm/cpu/armv7/start.o
 .rel.text.k_data_save
                0x000000001785867c       0x30 arch/arm/cpu/armv7/start.o
 .rel.text.k_data_restore
                0x00000000178586ac       0x30 arch/arm/cpu/armv7/start.o
 .rel.text.load_serial_ymodem
                0x00000000178586dc       0x20 arch/arm/cpu/armv7/start.o
 .rel.text.bin_data_char
                0x00000000178586fc       0x10 arch/arm/cpu/armv7/start.o
 .rel.text.chk1.constprop.1
                0x000000001785870c        0x8 arch/arm/cpu/armv7/start.o
 .rel.text.s1_sendpacket.constprop.2
                0x0000000017858714       0x18 arch/arm/cpu/armv7/start.o
 .rel.text.load_serial
                0x000000001785872c       0x68 arch/arm/cpu/armv7/start.o
 .rel.text.do_load_serial
                0x0000000017858794       0x30 arch/arm/cpu/armv7/start.o
 .rel.text.do_load_serial_bin
                0x00000000178587c4       0xe8 arch/arm/cpu/armv7/start.o
 .rel.text.do_mem_mw
                0x00000000178588ac        0x8 arch/arm/cpu/armv7/start.o
 .rel.text.do_mem_md
                0x00000000178588b4       0x20 arch/arm/cpu/armv7/start.o
 .rel.text.do_mem_cmp
                0x00000000178588d4       0x38 arch/arm/cpu/armv7/start.o
 .rel.text.do_mem_base
                0x000000001785890c       0x10 arch/arm/cpu/armv7/start.o
 .rel.text.do_mem_cp
                0x000000001785891c       0x10 arch/arm/cpu/armv7/start.o
 .rel.text.do_mem_crc
                0x000000001785892c        0x8 arch/arm/cpu/armv7/start.o
 .rel.text.mod_mem.isra.0
                0x0000000017858934       0x48 arch/arm/cpu/armv7/start.o
 .rel.text.miiphy_get_dev_by_name
                0x000000001785897c       0x10 arch/arm/cpu/armv7/start.o
 .rel.text.miiphy_init
                0x000000001785898c       0x10 arch/arm/cpu/armv7/start.o
 .rel.text.miiphy_register
                0x000000001785899c        0x0 arch/arm/cpu/armv7/start.o
 .rel.text.mdio_register
                0x000000001785899c       0x18 arch/arm/cpu/armv7/start.o
 .rel.text.mdio_list_devices
                0x00000000178589b4       0x28 arch/arm/cpu/armv7/start.o
 .rel.text.miiphy_set_current_dev
                0x00000000178589dc       0x10 arch/arm/cpu/armv7/start.o
 .rel.text.miiphy_get_active_dev
                0x00000000178589ec        0x8 arch/arm/cpu/armv7/start.o
 .rel.text.mdio_get_current_dev
                0x00000000178589f4        0x8 arch/arm/cpu/armv7/start.o
 .rel.text.mdio_phydev_for_ethname
                0x00000000178589fc       0x10 arch/arm/cpu/armv7/start.o
 .rel.text.miiphy_get_current_dev
                0x0000000017858a0c        0x8 arch/arm/cpu/armv7/start.o
 .rel.text.miiphy_listdev
                0x0000000017858a14       0x30 arch/arm/cpu/armv7/start.o
 .rel.text.miiphy_speed
                0x0000000017858a44       0x18 arch/arm/cpu/armv7/start.o
 .rel.text.miiphy_duplex
                0x0000000017858a5c       0x18 arch/arm/cpu/armv7/start.o
 .rel.text.do_mii
                0x0000000017858a74      0x158 arch/arm/cpu/armv7/start.o
 .rel.text.do_mdio
                0x0000000017858bcc       0x70 arch/arm/cpu/armv7/start.o
 .rel.text.do_mmcops
                0x0000000017858c3c       0x18 arch/arm/cpu/armv7/start.o
 .rel.text.init_mmc_device
                0x0000000017858c54        0x8 arch/arm/cpu/armv7/start.o
 .rel.text.do_mmc_rescan
                0x0000000017858c5c        0x8 arch/arm/cpu/armv7/start.o
 .rel.text.do_mmc_hwpartition
                0x0000000017858c64       0xb0 arch/arm/cpu/armv7/start.o
 .rel.text.do_mmc_dev
                0x0000000017858d14       0x38 arch/arm/cpu/armv7/start.o
 .rel.text.do_mmc_part
                0x0000000017858d4c       0x10 arch/arm/cpu/armv7/start.o
 .rel.text.do_mmc_erase
                0x0000000017858d5c       0x30 arch/arm/cpu/armv7/start.o
 .rel.text.do_mmc_write
                0x0000000017858d8c       0x30 arch/arm/cpu/armv7/start.o
 .rel.text.do_mmc_read
                0x0000000017858dbc       0x28 arch/arm/cpu/armv7/start.o
 .rel.text.do_mmcinfo
                0x0000000017858de4       0xf8 arch/arm/cpu/armv7/start.o
 .rel.text.do_mmc_setdsr
                0x0000000017858edc       0x28 arch/arm/cpu/armv7/start.o
 .rel.text.cpu_cmd
                0x0000000017858f04       0x28 arch/arm/cpu/armv7/start.o
 .rel.text.netboot_common
                0x0000000017858f2c       0x98 arch/arm/cpu/armv7/start.o
 .rel.text.do_ping
                0x0000000017858fc4       0x18 arch/arm/cpu/armv7/start.o
 .rel.text.__sata_initialize
                0x0000000017858fdc       0x20 arch/arm/cpu/armv7/start.o
 .rel.text.__sata_stop
                0x0000000017858ffc        0x8 arch/arm/cpu/armv7/start.o
 .rel.text.do_sata
                0x0000000017859004       0xc8 arch/arm/cpu/armv7/start.o
 .rel.text.sata_get_dev
                0x00000000178590cc        0x8 arch/arm/cpu/armv7/start.o
 .rel.text.do_spi_flash
                0x00000000178590d4       0xe0 arch/arm/cpu/armv7/start.o
 .rel.text.substitute
                0x00000000178591b4        0x8 arch/arm/cpu/armv7/start.o
 .rel.text.regex_sub
                0x00000000178591bc       0x38 arch/arm/cpu/armv7/start.o
 .rel.text.do_setexpr
                0x00000000178591f4       0x18 arch/arm/cpu/armv7/start.o
 .rel.text.do_test
                0x000000001785920c       0x70 arch/arm/cpu/armv7/start.o
 .rel.text.usb_get_class_desc
                0x000000001785927c       0x50 arch/arm/cpu/armv7/start.o
 .rel.text.usb_display_class_sub
                0x00000000178592cc       0xc8 arch/arm/cpu/armv7/start.o
 .rel.text.usb_show_tree_graph
                0x0000000017859394       0x48 arch/arm/cpu/armv7/start.o
 .rel.text.usb_display_string
                0x00000000178593dc        0x8 arch/arm/cpu/armv7/start.o
 .rel.text.usb_display_config
                0x00000000178593e4       0xa8 arch/arm/cpu/armv7/start.o
 .rel.text.do_usbboot
                0x000000001785948c        0x8 arch/arm/cpu/armv7/start.o
 .rel.text.do_usb_start
                0x0000000017859494        0x8 arch/arm/cpu/armv7/start.o
 .rel.text.usb_display_desc.part.2
                0x000000001785949c       0x38 arch/arm/cpu/armv7/start.o
 .rel.text.do_usb
                0x00000000178594d4      0x170 arch/arm/cpu/armv7/start.o
 .rel.text.usb_stop
                0x0000000017859644       0x18 arch/arm/cpu/armv7/start.o
 .rel.text.usb_detect_change
                0x000000001785965c        0x0 arch/arm/cpu/armv7/start.o
 .rel.text.usb_disable_asynch
                0x000000001785965c        0x8 arch/arm/cpu/armv7/start.o
 .rel.text.usb_control_msg
                0x0000000017859664        0x8 arch/arm/cpu/armv7/start.o
 .rel.text.get_descriptor_len
                0x000000001785966c       0x10 arch/arm/cpu/armv7/start.o
 .rel.text.usb_string_sub
                0x000000001785967c        0x8 arch/arm/cpu/armv7/start.o
 .rel.text.usb_get_configuration_no
                0x0000000017859684       0x20 arch/arm/cpu/armv7/start.o
 .rel.text.usb_set_interface
                0x00000000178596a4        0x8 arch/arm/cpu/armv7/start.o
 .rel.text.usb_get_dev_index
                0x00000000178596ac        0x8 arch/arm/cpu/armv7/start.o
 .rel.text.usb_alloc_new_device
                0x00000000178596b4       0x18 arch/arm/cpu/armv7/start.o
 .rel.text.usb_free_device
                0x00000000178596cc       0x10 arch/arm/cpu/armv7/start.o
 .rel.text.usb_select_config
                0x00000000178596dc       0x70 arch/arm/cpu/armv7/start.o
 .rel.text.usb_setup_device
                0x000000001785974c       0x20 arch/arm/cpu/armv7/start.o
 .rel.text.usb_init
                0x000000001785976c       0x58 arch/arm/cpu/armv7/start.o
 .rel.text.usb_hub_power_on
                0x00000000178597c4        0x8 arch/arm/cpu/armv7/start.o
 .rel.text.usb_hub_reset
                0x00000000178597cc        0x8 arch/arm/cpu/armv7/start.o
 .rel.text.usb_hub_port_connect_change
                0x00000000178597d4       0x10 arch/arm/cpu/armv7/start.o
 .rel.text.usb_hub_configure
                0x00000000178597e4       0x18 arch/arm/cpu/armv7/start.o
 .rel.text.usb_stor_BBB_transport
                0x00000000178597fc       0x10 arch/arm/cpu/armv7/start.o
 .rel.text.usb_stor_CB_comdat
                0x000000001785980c        0x8 arch/arm/cpu/armv7/start.o
 .rel.text.usb_stor_CBI_get_status.isra.4
                0x0000000017859814        0x8 arch/arm/cpu/armv7/start.o
 .rel.text.usb_stor_CB_transport
                0x000000001785981c       0x10 arch/arm/cpu/armv7/start.o
 .rel.text.usb_request_sense.constprop.10
                0x000000001785982c        0x8 arch/arm/cpu/armv7/start.o
 .rel.text.usb_stor_write
                0x0000000017859834       0x10 arch/arm/cpu/armv7/start.o
 .rel.text.usb_stor_read
                0x0000000017859844       0x10 arch/arm/cpu/armv7/start.o
 .rel.text.usb_stor_get_dev
                0x0000000017859854       0x10 arch/arm/cpu/armv7/start.o
 .rel.text.usb_stor_info
                0x0000000017859864       0x20 arch/arm/cpu/armv7/start.o
 .rel.text.usb_stor_reset
                0x0000000017859884        0x0 arch/arm/cpu/armv7/start.o
 .rel.text.usb_storage_probe
                0x0000000017859884       0x38 arch/arm/cpu/armv7/start.o
 .rel.text.usb_stor_get_info
                0x00000000178598bc       0x20 arch/arm/cpu/armv7/start.o
 .rel.text.usb_stor_scan
                0x00000000178598dc       0x40 arch/arm/cpu/armv7/start.o
 .rel.text.do_fastboot
                0x000000001785991c       0x28 arch/arm/cpu/armv7/start.o
 .rel.text.ums_init
                0x0000000017859944       0x10 arch/arm/cpu/armv7/start.o
 .rel.text.do_usb_mass_storage
                0x0000000017859954       0x70 arch/arm/cpu/armv7/start.o
 .rel.text.do_imgextract
                0x00000000178599c4       0x90 arch/arm/cpu/armv7/start.o
 .rel.text.do_dfu
                0x0000000017859a54       0x18 arch/arm/cpu/armv7/start.o
 .rel.text.do_env_delete
                0x0000000017859a6c       0x10 arch/arm/cpu/armv7/start.o
 .rel.text.do_env_exists
                0x0000000017859a7c        0x8 arch/arm/cpu/armv7/start.o
 .rel.text.do_env_save
                0x0000000017859a84       0x10 arch/arm/cpu/armv7/start.o
 .rel.text.do_env
                0x0000000017859a94        0x8 arch/arm/cpu/armv7/start.o
 .rel.text.env_print
                0x0000000017859a9c       0x18 arch/arm/cpu/armv7/start.o
 .rel.text.do_env_print
                0x0000000017859ab4       0x10 arch/arm/cpu/armv7/start.o
 .rel.text.do_env_import
                0x0000000017859ac4       0x58 arch/arm/cpu/armv7/start.o
 .rel.text.do_env_default
                0x0000000017859b1c        0x8 arch/arm/cpu/armv7/start.o
 .rel.text._do_env_set.isra.0
                0x0000000017859b24       0x30 arch/arm/cpu/armv7/start.o
 .rel.text.get_env_id
                0x0000000017859b54        0x8 arch/arm/cpu/armv7/start.o
 .rel.text.setenv
                0x0000000017859b5c        0x8 arch/arm/cpu/armv7/start.o
 .rel.text.setenv_hex
                0x0000000017859b64        0x8 arch/arm/cpu/armv7/start.o
 .rel.text.do_env_export
                0x0000000017859b6c       0x40 arch/arm/cpu/armv7/start.o
 .rel.text.getenv_f
                0x0000000017859bac        0x8 arch/arm/cpu/armv7/start.o
 .rel.text.getenv
                0x0000000017859bb4        0x8 arch/arm/cpu/armv7/start.o
 .rel.text.do_env_edit.part.2
                0x0000000017859bbc       0x18 arch/arm/cpu/armv7/start.o
 .rel.text.env_get_addr
                0x0000000017859bd4        0x8 arch/arm/cpu/armv7/start.o
 .rel.text.env_get_char
                0x0000000017859bdc        0x8 arch/arm/cpu/armv7/start.o
 .rel.text.set_default_env
                0x0000000017859be4       0x40 arch/arm/cpu/armv7/start.o
 .rel.text.set_default_vars
                0x0000000017859c24       0x10 arch/arm/cpu/armv7/start.o
 .rel.text.env_import
                0x0000000017859c34       0x38 arch/arm/cpu/armv7/start.o
 .rel.text.env_export
                0x0000000017859c6c       0x28 arch/arm/cpu/armv7/start.o
 .rel.text.env_relocate
                0x0000000017859c94        0x8 arch/arm/cpu/armv7/start.o
 .rel.text.env_complete
                0x0000000017859c9c       0x18 arch/arm/cpu/armv7/start.o
 .rel.text.console_setfile
                0x0000000017859cb4       0x30 arch/arm/cpu/armv7/start.o
 .rel.text.putc
                0x0000000017859ce4        0x8 arch/arm/cpu/armv7/start.o
 .rel.text.puts
                0x0000000017859cec        0x8 arch/arm/cpu/armv7/start.o
 .rel.text.fgetc
                0x0000000017859cf4        0x8 arch/arm/cpu/armv7/start.o
 .rel.text.ftstc
                0x0000000017859cfc        0x8 arch/arm/cpu/armv7/start.o
 .rel.text.fputc
                0x0000000017859d04        0x0 arch/arm/cpu/armv7/start.o
 .rel.text.fputs
                0x0000000017859d04        0x0 arch/arm/cpu/armv7/start.o
 .rel.text.ctrlc
                0x0000000017859d04       0x10 arch/arm/cpu/armv7/start.o
 .rel.text.confirm_yesno
                0x0000000017859d14       0x20 arch/arm/cpu/armv7/start.o
 .rel.text.disable_ctrlc
                0x0000000017859d34        0x0 arch/arm/cpu/armv7/start.o
 .rel.text.had_ctrlc
                0x0000000017859d34        0x8 arch/arm/cpu/armv7/start.o
 .rel.text.clear_ctrlc
                0x0000000017859d3c        0x8 arch/arm/cpu/armv7/start.o
 .rel.text.on_console
                0x0000000017859d44       0x20 arch/arm/cpu/armv7/start.o
 .rel.text.stdio_print_current_devices
                0x0000000017859d64       0x40 arch/arm/cpu/armv7/start.o
 .rel.text.console_init_r
                0x0000000017859da4       0x10 arch/arm/cpu/armv7/start.o
 .rel.text.sbrk
                0x0000000017859db4       0x18 arch/arm/cpu/armv7/start.o
 .rel.text.mem_malloc_init
                0x0000000017859dcc       0x18 arch/arm/cpu/armv7/start.o
 .rel.text.malloc_trim
                0x0000000017859de4       0x18 arch/arm/cpu/armv7/start.o
 .rel.text.free
                0x0000000017859dfc       0x18 arch/arm/cpu/armv7/start.o
 .rel.text.malloc
                0x0000000017859e14       0x40 arch/arm/cpu/armv7/start.o
 .rel.text.calloc
                0x0000000017859e54        0x8 arch/arm/cpu/armv7/start.o
 .rel.text.realloc
                0x0000000017859e5c       0x10 arch/arm/cpu/armv7/start.o
 .rel.text.mallopt
                0x0000000017859e6c        0x0 arch/arm/cpu/armv7/start.o
 .rel.text.on_loadaddr
                0x0000000017859e6c        0x8 arch/arm/cpu/armv7/start.o
 .rel.text.getenv_bootm_low
                0x0000000017859e74        0x8 arch/arm/cpu/armv7/start.o
 .rel.text.getenv_bootm_size
                0x0000000017859e7c       0x10 arch/arm/cpu/armv7/start.o
 .rel.text.getenv_bootm_mapsize
                0x0000000017859e8c        0x8 arch/arm/cpu/armv7/start.o
 .rel.text.genimg_print_size
                0x0000000017859e94       0x10 arch/arm/cpu/armv7/start.o
 .rel.text.genimg_get_os_name
                0x0000000017859ea4       0x10 arch/arm/cpu/armv7/start.o
 .rel.text.genimg_get_arch_name
                0x0000000017859eb4       0x10 arch/arm/cpu/armv7/start.o
 .rel.text.genimg_get_type_name
                0x0000000017859ec4       0x10 arch/arm/cpu/armv7/start.o
 .rel.text.genimg_get_type_short_name
                0x0000000017859ed4        0x0 arch/arm/cpu/armv7/start.o
 .rel.text.genimg_get_comp_name
                0x0000000017859ed4       0x10 arch/arm/cpu/armv7/start.o
 .rel.text.image_print_contents
                0x0000000017859ee4       0x50 arch/arm/cpu/armv7/start.o
 .rel.text.genimg_get_os_id
                0x0000000017859f34        0x0 arch/arm/cpu/armv7/start.o
 .rel.text.genimg_get_arch_id
                0x0000000017859f34        0x0 arch/arm/cpu/armv7/start.o
 .rel.text.genimg_get_type_id
                0x0000000017859f34        0x0 arch/arm/cpu/armv7/start.o
 .rel.text.genimg_get_comp_id
                0x0000000017859f34        0x0 arch/arm/cpu/armv7/start.o
 .rel.text.genimg_get_kernel_addr_fit
                0x0000000017859f34        0x8 arch/arm/cpu/armv7/start.o
 .rel.text.boot_get_ramdisk
                0x0000000017859f3c       0x50 arch/arm/cpu/armv7/start.o
 .rel.text.boot_ramdisk_high
                0x0000000017859f8c       0x20 arch/arm/cpu/armv7/start.o
 .rel.text.android_image_get_kernel
                0x0000000017859fac       0x38 arch/arm/cpu/armv7/start.o
 .rel.text.android_image_check_header
                0x0000000017859fe4        0x8 arch/arm/cpu/armv7/start.o
 .rel.text.android_image_get_ramdisk
                0x0000000017859fec        0x8 arch/arm/cpu/armv7/start.o
 .rel.text.fdt_error
                0x0000000017859ff4       0x10 arch/arm/cpu/armv7/start.o
 .rel.text.boot_fdt_add_mem_rsv_regions
                0x000000001785a004        0x8 arch/arm/cpu/armv7/start.o
 .rel.text.boot_relocate_fdt
                0x000000001785a00c       0x40 arch/arm/cpu/armv7/start.o
 .rel.text.boot_get_fdt
                0x000000001785a04c       0x80 arch/arm/cpu/armv7/start.o
 .rel.text.image_setup_libfdt
                0x000000001785a0cc       0x20 arch/arm/cpu/armv7/start.o
 .rel.text.stdio_get_list
                0x000000001785a0ec        0x8 arch/arm/cpu/armv7/start.o
 .rel.text.stdio_get_by_name
                0x000000001785a0f4        0x8 arch/arm/cpu/armv7/start.o
 .rel.text.stdio_register_dev
                0x000000001785a0fc        0x8 arch/arm/cpu/armv7/start.o
 .rel.text.stdio_init_tables
                0x000000001785a104        0x8 arch/arm/cpu/armv7/start.o
 .rel.text.stdio_add_devices
                0x000000001785a10c       0x28 arch/arm/cpu/armv7/start.o
 .rel.text.cli_simple_parse_line
                0x000000001785a134        0x0 arch/arm/cpu/armv7/start.o
 .rel.text.cli_simple_run_command
                0x000000001785a134        0x0 arch/arm/cpu/armv7/start.o
 .rel.text.cli_simple_loop
                0x000000001785a134        0x0 arch/arm/cpu/armv7/start.o
 .rel.text.do_run
                0x000000001785a134        0x8 arch/arm/cpu/armv7/start.o
 .rel.text.delete_char.part.0
                0x000000001785a13c       0x10 arch/arm/cpu/armv7/start.o
 .rel.text.cread_add_char
                0x000000001785a14c        0x8 arch/arm/cpu/armv7/start.o
 .rel.text.cli_readline_into_buffer
                0x000000001785a154       0xb8 arch/arm/cpu/armv7/start.o
 .rel.text.cli_readline
                0x000000001785a20c        0x8 arch/arm/cpu/armv7/start.o
 .rel.text.find_cmd
                0x000000001785a214       0x10 arch/arm/cpu/armv7/start.o
 .rel.text.cmd_usage
                0x000000001785a224       0x18 arch/arm/cpu/armv7/start.o
 .rel.text._do_help
                0x000000001785a23c       0x10 arch/arm/cpu/armv7/start.o
 .rel.text.var_complete
                0x000000001785a24c       0x10 arch/arm/cpu/armv7/start.o
 .rel.text.cmd_auto_complete
                0x000000001785a25c       0x48 arch/arm/cpu/armv7/start.o
 .rel.text.cmd_get_data_size
                0x000000001785a2a4        0x8 arch/arm/cpu/armv7/start.o
 .rel.text.cmd_process
                0x000000001785a2ac       0x18 arch/arm/cpu/armv7/start.o
 .rel.text.cmd_process_error
                0x000000001785a2c4        0x8 arch/arm/cpu/armv7/start.o
 .rel.text.srec_decode
                0x000000001785a2cc       0x50 arch/arm/cpu/armv7/start.o
 .rel.text.xyzModem_get_hdr
                0x000000001785a31c       0x30 arch/arm/cpu/armv7/start.o
 .rel.text.xyzModem_stream_open
                0x000000001785a34c       0x10 arch/arm/cpu/armv7/start.o
 .rel.text.xyzModem_stream_read
                0x000000001785a35c        0x8 arch/arm/cpu/armv7/start.o
 .rel.text.xyzModem_stream_close
                0x000000001785a364       0x20 arch/arm/cpu/armv7/start.o
 .rel.text.xyzModem_stream_terminate
                0x000000001785a384        0x8 arch/arm/cpu/armv7/start.o
 .rel.text.xyzModem_error
                0x000000001785a38c       0x10 arch/arm/cpu/armv7/start.o
 .rel.text.common_diskboot
                0x000000001785a39c       0x28 arch/arm/cpu/armv7/start.o
 .rel.rodata.boot_os
                0x000000001785a3c4       0x30 arch/arm/cpu/armv7/start.o
 .rel.rodata.op_table
                0x000000001785a3f4       0x68 arch/arm/cpu/armv7/start.o
 .rel.rodata.reg_4_desc_tbl
                0x000000001785a45c       0x60 arch/arm/cpu/armv7/start.o
 .rel.rodata.desc_and_len_tbl
                0x000000001785a4bc       0x30 arch/arm/cpu/armv7/start.o
 .rel.rodata.reg_5_desc_tbl
                0x000000001785a4ec       0x60 arch/arm/cpu/armv7/start.o
 .rel.rodata.reg_2_desc_tbl
                0x000000001785a54c        0x8 arch/arm/cpu/armv7/start.o
 .rel.rodata.reg_0_5_desc_tbl
                0x000000001785a554       0x30 arch/arm/cpu/armv7/start.o
 .rel.rodata.reg_3_desc_tbl
                0x000000001785a584       0x18 arch/arm/cpu/armv7/start.o
 .rel.rodata.reg_0_desc_tbl
                0x000000001785a59c       0x50 arch/arm/cpu/armv7/start.o
 .rel.rodata.reg_1_desc_tbl
                0x000000001785a5ec       0x80 arch/arm/cpu/armv7/start.o
 .rel.rodata.op_adv
                0x000000001785a66c       0x80 arch/arm/cpu/armv7/start.o
 .rel.rodata.CSWTCH.27
                0x000000001785a6ec       0x28 arch/arm/cpu/armv7/start.o
 .rel.rodata.uimage_comp
                0x000000001785a714       0x70 arch/arm/cpu/armv7/start.o
 .rel.rodata.uimage_os
                0x000000001785a784       0x88 arch/arm/cpu/armv7/start.o
 .rel.rodata.uimage_arch
                0x000000001785a80c      0x188 arch/arm/cpu/armv7/start.o
 .rel.rodata.uimage_type
                0x000000001785a994      0x198 arch/arm/cpu/armv7/start.o
 .rel.rodata.CSWTCH.28
                0x000000001785ab2c       0x40 arch/arm/cpu/armv7/start.o
 .rel.data.hash_algo
                0x000000001785ab6c       0x28 arch/arm/cpu/armv7/start.o
 .rel.data.reserved_list
                0x000000001785ab94       0x58 arch/arm/cpu/armv7/start.o
 .rel.u_boot_list_2_cmd_2_showvar
                0x000000001785abec       0x20 arch/arm/cpu/armv7/start.o
 .rel.data.init_sequence_f
                0x000000001785ac0c      0x130 arch/arm/cpu/armv7/start.o
 .rel.data.init_sequence_r
                0x000000001785ad3c       0xc8 arch/arm/cpu/armv7/start.o
 .rel.u_boot_list_2_cmd_2_go
                0x000000001785ae04       0x20 arch/arm/cpu/armv7/start.o
 .rel.u_boot_list_2_cmd_2_reset
                0x000000001785ae24       0x20 arch/arm/cpu/armv7/start.o
 .rel.u_boot_list_2_cmd_2_iminfo
                0x000000001785ae44       0x20 arch/arm/cpu/armv7/start.o
 .rel.u_boot_list_2_cmd_2_bootz
                0x000000001785ae64       0x20 arch/arm/cpu/armv7/start.o
 .rel.u_boot_list_2_cmd_2_boot
                0x000000001785ae84       0x20 arch/arm/cpu/armv7/start.o
 .rel.u_boot_list_2_cmd_2_bootd
                0x000000001785aea4       0x20 arch/arm/cpu/armv7/start.o
 .rel.u_boot_list_2_cmd_2_bootm
                0x000000001785aec4       0x20 arch/arm/cpu/armv7/start.o
 .rel.data.cmd_bootm_sub
                0x000000001785aee4       0xd8 arch/arm/cpu/armv7/start.o
 .rel.u_boot_list_2_cmd_2_question_mark
                0x000000001785afbc       0x20 arch/arm/cpu/armv7/start.o
 .rel.u_boot_list_2_cmd_2_help
                0x000000001785afdc       0x20 arch/arm/cpu/armv7/start.o
 .rel.u_boot_list_2_cmd_2_version
                0x000000001785affc       0x20 arch/arm/cpu/armv7/start.o
 .rel.u_boot_list_2_env_clbk_2_callbacks
                0x000000001785b01c       0x10 arch/arm/cpu/armv7/start.o
 .rel.u_boot_list_2_env_clbk_2_flags
                0x000000001785b02c       0x10 arch/arm/cpu/armv7/start.o
 .rel.data.env_name_spec
                0x000000001785b03c        0x8 arch/arm/cpu/armv7/start.o
 .rel.u_boot_list_2_cmd_2_source
                0x000000001785b044       0x20 arch/arm/cpu/armv7/start.o
 .rel.u_boot_list_2_cmd_2_bdinfo
                0x000000001785b064       0x20 arch/arm/cpu/armv7/start.o
 .rel.u_boot_list_2_cmd_2_icache
                0x000000001785b084       0x20 arch/arm/cpu/armv7/start.o
 .rel.u_boot_list_2_cmd_2_dcache
                0x000000001785b0a4       0x20 arch/arm/cpu/armv7/start.o
 .rel.u_boot_list_2_cmd_2_coninfo
                0x000000001785b0c4       0x20 arch/arm/cpu/armv7/start.o
 .rel.u_boot_list_2_cmd_2_echo
                0x000000001785b0e4       0x20 arch/arm/cpu/armv7/start.o
 .rel.u_boot_list_2_cmd_2_exit
                0x000000001785b104       0x20 arch/arm/cpu/armv7/start.o
 .rel.u_boot_list_2_cmd_2_ext4load
                0x000000001785b124       0x20 arch/arm/cpu/armv7/start.o
 .rel.u_boot_list_2_cmd_2_ext4write
                0x000000001785b144       0x20 arch/arm/cpu/armv7/start.o
 .rel.u_boot_list_2_cmd_2_ext4ls
                0x000000001785b164       0x20 arch/arm/cpu/armv7/start.o
 .rel.u_boot_list_2_cmd_2_ext4size
                0x000000001785b184       0x20 arch/arm/cpu/armv7/start.o
 .rel.u_boot_list_2_cmd_2_ext2ls
                0x000000001785b1a4       0x20 arch/arm/cpu/armv7/start.o
 .rel.u_boot_list_2_cmd_2_ext2load
                0x000000001785b1c4       0x20 arch/arm/cpu/armv7/start.o
 .rel.u_boot_list_2_cmd_2_fatinfo
                0x000000001785b1e4       0x20 arch/arm/cpu/armv7/start.o
 .rel.u_boot_list_2_cmd_2_fatwrite
                0x000000001785b204       0x20 arch/arm/cpu/armv7/start.o
 .rel.u_boot_list_2_cmd_2_fatload
                0x000000001785b224       0x20 arch/arm/cpu/armv7/start.o
 .rel.u_boot_list_2_cmd_2_fatls
                0x000000001785b244       0x20 arch/arm/cpu/armv7/start.o
 .rel.u_boot_list_2_cmd_2_fatsize
                0x000000001785b264       0x20 arch/arm/cpu/armv7/start.o
 .rel.u_boot_list_2_cmd_2_fdt
                0x000000001785b284       0x20 arch/arm/cpu/armv7/start.o
 .rel.data.of_busses
                0x000000001785b2a4        0x0 arch/arm/cpu/armv7/start.o
 .rel.u_boot_list_2_cmd_2_save
                0x000000001785b2a4       0x20 arch/arm/cpu/armv7/start.o
 .rel.u_boot_list_2_cmd_2_ls
                0x000000001785b2c4       0x20 arch/arm/cpu/armv7/start.o
 .rel.u_boot_list_2_cmd_2_fstype
                0x000000001785b2e4       0x20 arch/arm/cpu/armv7/start.o
 .rel.u_boot_list_2_cmd_2_size
                0x000000001785b304       0x20 arch/arm/cpu/armv7/start.o
 .rel.u_boot_list_2_cmd_2_load
                0x000000001785b324       0x20 arch/arm/cpu/armv7/start.o
 .rel.u_boot_list_2_cmd_2_fuse
                0x000000001785b344       0x20 arch/arm/cpu/armv7/start.o
 .rel.u_boot_list_2_cmd_2_gpio
                0x000000001785b364       0x20 arch/arm/cpu/armv7/start.o
 .rel.data.cmd_i2c_sub
                0x000000001785b384      0x1a0 arch/arm/cpu/armv7/start.o
 .rel.u_boot_list_2_cmd_2_i2c
                0x000000001785b524       0x20 arch/arm/cpu/armv7/start.o
 .rel.u_boot_list_2_cmd_2_itest
                0x000000001785b544       0x20 arch/arm/cpu/armv7/start.o
 .rel.u_boot_list_2_cmd_2_loadb
                0x000000001785b564       0x20 arch/arm/cpu/armv7/start.o
 .rel.u_boot_list_2_cmd_2_loads
                0x000000001785b584       0x20 arch/arm/cpu/armv7/start.o
 .rel.u_boot_list_2_cmd_2_loadx
                0x000000001785b5a4       0x20 arch/arm/cpu/armv7/start.o
 .rel.u_boot_list_2_cmd_2_loady
                0x000000001785b5c4       0x20 arch/arm/cpu/armv7/start.o
 .rel.u_boot_list_2_cmd_2_base
                0x000000001785b5e4       0x20 arch/arm/cpu/armv7/start.o
 .rel.u_boot_list_2_cmd_2_cmp
                0x000000001785b604       0x20 arch/arm/cpu/armv7/start.o
 .rel.u_boot_list_2_cmd_2_nm
                0x000000001785b624       0x20 arch/arm/cpu/armv7/start.o
 .rel.u_boot_list_2_cmd_2_loop
                0x000000001785b644       0x20 arch/arm/cpu/armv7/start.o
 .rel.u_boot_list_2_cmd_2_cp
                0x000000001785b664       0x20 arch/arm/cpu/armv7/start.o
 .rel.u_boot_list_2_cmd_2_mm
                0x000000001785b684       0x20 arch/arm/cpu/armv7/start.o
 .rel.u_boot_list_2_cmd_2_crc32
                0x000000001785b6a4       0x20 arch/arm/cpu/armv7/start.o
 .rel.u_boot_list_2_cmd_2_md
                0x000000001785b6c4       0x20 arch/arm/cpu/armv7/start.o
 .rel.u_boot_list_2_cmd_2_mw
                0x000000001785b6e4       0x20 arch/arm/cpu/armv7/start.o
 .rel.u_boot_list_2_cmd_2_mii
                0x000000001785b704       0x20 arch/arm/cpu/armv7/start.o
 .rel.u_boot_list_2_cmd_2_mdio
                0x000000001785b724       0x20 arch/arm/cpu/armv7/start.o
 .rel.u_boot_list_2_cmd_2_sleep
                0x000000001785b744       0x20 arch/arm/cpu/armv7/start.o
 .rel.u_boot_list_2_cmd_2_mmcinfo
                0x000000001785b764       0x20 arch/arm/cpu/armv7/start.o
 .rel.data.cmd_mmc
                0x000000001785b784      0x140 arch/arm/cpu/armv7/start.o
 .rel.u_boot_list_2_cmd_2_mmc
                0x000000001785b8c4       0x20 arch/arm/cpu/armv7/start.o
 .rel.u_boot_list_2_cmd_2_cpu
                0x000000001785b8e4       0x20 arch/arm/cpu/armv7/start.o
 .rel.u_boot_list_2_cmd_2_ping
                0x000000001785b904       0x20 arch/arm/cpu/armv7/start.o
 .rel.u_boot_list_2_cmd_2_dhcp
                0x000000001785b924       0x20 arch/arm/cpu/armv7/start.o
 .rel.u_boot_list_2_cmd_2_bootp
                0x000000001785b944       0x20 arch/arm/cpu/armv7/start.o
 .rel.u_boot_list_2_cmd_2_tftpboot
                0x000000001785b964       0x20 arch/arm/cpu/armv7/start.o
 .rel.u_boot_list_2_cmd_2_nfs
                0x000000001785b984       0x20 arch/arm/cpu/armv7/start.o
 .rel.u_boot_list_2_cmd_2_sata
                0x000000001785b9a4       0x20 arch/arm/cpu/armv7/start.o
 .rel.u_boot_list_2_cmd_2_sf
                0x000000001785b9c4       0x20 arch/arm/cpu/armv7/start.o
 .rel.u_boot_list_2_cmd_2_setexpr
                0x000000001785b9e4       0x20 arch/arm/cpu/armv7/start.o
 .rel.u_boot_list_2_cmd_2_test
                0x000000001785ba04       0x20 arch/arm/cpu/armv7/start.o
 .rel.u_boot_list_2_cmd_2_true
                0x000000001785ba24       0x18 arch/arm/cpu/armv7/start.o
 .rel.u_boot_list_2_cmd_2_false
                0x000000001785ba3c       0x18 arch/arm/cpu/armv7/start.o
 .rel.u_boot_list_2_cmd_2_usb
                0x000000001785ba54       0x20 arch/arm/cpu/armv7/start.o
 .rel.u_boot_list_2_cmd_2_usbboot
                0x000000001785ba74       0x20 arch/arm/cpu/armv7/start.o
 .rel.u_boot_list_2_cmd_2_fastboot
                0x000000001785ba94       0x20 arch/arm/cpu/armv7/start.o
 .rel.u_boot_list_2_cmd_2_ums
                0x000000001785bab4       0x20 arch/arm/cpu/armv7/start.o
 .rel.data.ums_dev
                0x000000001785bad4       0x18 arch/arm/cpu/armv7/start.o
 .rel.u_boot_list_2_cmd_2_imxtract
                0x000000001785baec       0x20 arch/arm/cpu/armv7/start.o
 .rel.u_boot_list_2_cmd_2_dfu
                0x000000001785bb0c       0x20 arch/arm/cpu/armv7/start.o
 .rel.u_boot_list_2_cmd_2_setenv
                0x000000001785bb2c       0x28 arch/arm/cpu/armv7/start.o
 .rel.u_boot_list_2_cmd_2_env
                0x000000001785bb54       0x20 arch/arm/cpu/armv7/start.o
 .rel.u_boot_list_2_cmd_2_saveenv
                0x000000001785bb74       0x20 arch/arm/cpu/armv7/start.o
 .rel.data.cmd_env_sub
                0x000000001785bb94      0x140 arch/arm/cpu/armv7/start.o
 .rel.u_boot_list_2_cmd_2_printenv
                0x000000001785bcd4       0x28 arch/arm/cpu/armv7/start.o
 .rel.u_boot_list_2_cmd_2_editenv
                0x000000001785bcfc       0x28 arch/arm/cpu/armv7/start.o
 .rel.u_boot_list_2_cmd_2_run
                0x000000001785bd24       0x28 arch/arm/cpu/armv7/start.o
 .rel.data.env_htab
                0x000000001785bd4c        0x8 arch/arm/cpu/armv7/start.o
 .rel.u_boot_list_2_env_clbk_2_console
                0x000000001785bd54       0x10 arch/arm/cpu/armv7/start.o
 .rel.data.av_  0x000000001785bd64      0x800 arch/arm/cpu/armv7/start.o
 .rel.u_boot_list_2_env_clbk_2_loadaddr
                0x000000001785c564       0x10 arch/arm/cpu/armv7/start.o
 .rel.data.stdio_names
                0x000000001785c574       0x18 arch/arm/cpu/armv7/start.o
 .rel.text.get_dev_hwpart
                0x000000001785c58c        0x8 arch/arm/cpu/armv7/start.o
 .rel.text.dev_print
                0x000000001785c594      0x118 arch/arm/cpu/armv7/start.o
 .rel.text.print_part
                0x000000001785c6ac       0xb0 arch/arm/cpu/armv7/start.o
 .rel.text.get_device
                0x000000001785c75c       0x18 arch/arm/cpu/armv7/start.o
 .rel.text.get_device_and_partition
                0x000000001785c774       0x70 arch/arm/cpu/armv7/start.o
 .rel.text.test_block_type
                0x000000001785c7e4       0x10 arch/arm/cpu/armv7/start.o
 .rel.text.print_partition_extended
                0x000000001785c7f4       0x30 arch/arm/cpu/armv7/start.o
 .rel.text.get_partition_info_extended.constprop.1
                0x000000001785c824       0x80 arch/arm/cpu/armv7/start.o
 .rel.text.print_part_dos
                0x000000001785c8a4        0x8 arch/arm/cpu/armv7/start.o
 .rel.rodata.block_drvr
                0x000000001785c8ac       0x38 arch/arm/cpu/armv7/start.o
 .rel.text.device_bind
                0x000000001785c8e4       0x10 arch/arm/cpu/armv7/start.o
 .rel.text.device_probe_child
                0x000000001785c8f4       0x10 arch/arm/cpu/armv7/start.o
 .rel.text.dev_get_platdata
                0x000000001785c904       0x10 arch/arm/cpu/armv7/start.o
 .rel.text.dev_get_parent_platdata
                0x000000001785c914        0x0 arch/arm/cpu/armv7/start.o
 .rel.text.dev_get_uclass_platdata
                0x000000001785c914        0x0 arch/arm/cpu/armv7/start.o
 .rel.text.dev_get_priv
                0x000000001785c914       0x10 arch/arm/cpu/armv7/start.o
 .rel.text.dev_get_uclass_priv
                0x000000001785c924        0x0 arch/arm/cpu/armv7/start.o
 .rel.text.dev_get_parentdata
                0x000000001785c924        0x0 arch/arm/cpu/armv7/start.o
 .rel.text.lists_driver_lookup_name
                0x000000001785c924       0x10 arch/arm/cpu/armv7/start.o
 .rel.text.lists_uclass_lookup
                0x000000001785c934       0x10 arch/arm/cpu/armv7/start.o
 .rel.text.lists_bind_drivers
                0x000000001785c944       0x18 arch/arm/cpu/armv7/start.o
 .rel.text.dm_root
                0x000000001785c95c        0x8 arch/arm/cpu/armv7/start.o
 .rel.text.dm_init
                0x000000001785c964       0x10 arch/arm/cpu/armv7/start.o
 .rel.text.dm_scan_platdata
                0x000000001785c974        0x8 arch/arm/cpu/armv7/start.o
 .rel.text.uclass_resolve_seq
                0x000000001785c97c        0x8 arch/arm/cpu/armv7/start.o
 .rel.text.device_remove
                0x000000001785c984       0x20 arch/arm/cpu/armv7/start.o
 .rel.text.show_devices
                0x000000001785c9a4       0x30 arch/arm/cpu/armv7/start.o
 .rel.text.dm_dump_all
                0x000000001785c9d4       0x10 arch/arm/cpu/armv7/start.o
 .rel.text.dm_dump_uclass
                0x000000001785c9e4       0x20 arch/arm/cpu/armv7/start.o
 .rel.text.ahci_exec_ata_cmd
                0x000000001785ca04       0x18 arch/arm/cpu/armv7/start.o
 .rel.text.dwc_ahsata_rw_cmd_ext
                0x000000001785ca1c        0x8 arch/arm/cpu/armv7/start.o
 .rel.text.dwc_ahsata_rw_cmd
                0x000000001785ca24        0x8 arch/arm/cpu/armv7/start.o
 .rel.text.init_sata
                0x000000001785ca2c       0xd0 arch/arm/cpu/armv7/start.o
 .rel.text.reset_sata
                0x000000001785cafc       0x10 arch/arm/cpu/armv7/start.o
 .rel.text.dwc_ahsata_flush_cache
                0x000000001785cb0c        0x8 arch/arm/cpu/armv7/start.o
 .rel.text.dwc_ahsata_rw_ncq_cmd
                0x000000001785cb14        0x0 arch/arm/cpu/armv7/start.o
 .rel.text.dwc_ahsata_flush_cache_ext
                0x000000001785cb14        0x8 arch/arm/cpu/armv7/start.o
 .rel.text.sata_port_status
                0x000000001785cb1c        0x0 arch/arm/cpu/armv7/start.o
 .rel.text.sata_read
                0x000000001785cb1c        0x8 arch/arm/cpu/armv7/start.o
 .rel.text.sata_write
                0x000000001785cb24        0x8 arch/arm/cpu/armv7/start.o
 .rel.text.scan_sata
                0x000000001785cb2c       0x20 arch/arm/cpu/armv7/start.o
 .rel.text.ata_dump_id
                0x000000001785cb4c        0x0 arch/arm/cpu/armv7/start.o
 .rel.text.finish_access
                0x000000001785cb4c        0x8 arch/arm/cpu/armv7/start.o
 .rel.text.prepare_access
                0x000000001785cb54        0x8 arch/arm/cpu/armv7/start.o
 .rel.text.fuse_read
                0x000000001785cb5c        0x8 arch/arm/cpu/armv7/start.o
 .rel.text.fuse_sense
                0x000000001785cb64        0x8 arch/arm/cpu/armv7/start.o
 .rel.text.fuse_prog
                0x000000001785cb6c        0x8 arch/arm/cpu/armv7/start.o
 .rel.text.fuse_override
                0x000000001785cb74        0x8 arch/arm/cpu/armv7/start.o
 .rel.text.dfu_write_buffer_drain
                0x000000001785cb7c       0x10 arch/arm/cpu/armv7/start.o
 .rel.text.dfu_free_buf
                0x000000001785cb8c        0x8 arch/arm/cpu/armv7/start.o
 .rel.text.dfu_get_buf_size
                0x000000001785cb94        0x8 arch/arm/cpu/armv7/start.o
 .rel.text.dfu_get_buf
                0x000000001785cb9c       0x28 arch/arm/cpu/armv7/start.o
 .rel.text.dfu_write_transaction_cleanup
                0x000000001785cbc4        0x8 arch/arm/cpu/armv7/start.o
 .rel.text.dfu_flush
                0x000000001785cbcc       0x10 arch/arm/cpu/armv7/start.o
 .rel.text.dfu_write
                0x000000001785cbdc       0x28 arch/arm/cpu/armv7/start.o
 .rel.text.dfu_read
                0x000000001785cc04       0x40 arch/arm/cpu/armv7/start.o
 .rel.text.dfu_free_entities
                0x000000001785cc44       0x10 arch/arm/cpu/armv7/start.o
 .rel.text.dfu_config_entities
                0x000000001785cc54       0xa8 arch/arm/cpu/armv7/start.o
 .rel.text.dfu_init_env_entities
                0x000000001785ccfc       0x28 arch/arm/cpu/armv7/start.o
 .rel.text.dfu_get_dev_type
                0x000000001785cd24        0x8 arch/arm/cpu/armv7/start.o
 .rel.text.dfu_get_layout
                0x000000001785cd2c        0x8 arch/arm/cpu/armv7/start.o
 .rel.text.dfu_show_entities
                0x000000001785cd34       0x18 arch/arm/cpu/armv7/start.o
 .rel.text.dfu_get_alt_number
                0x000000001785cd4c        0x8 arch/arm/cpu/armv7/start.o
 .rel.text.dfu_get_entity
                0x000000001785cd54        0x8 arch/arm/cpu/armv7/start.o
 .rel.text.dfu_get_alt
                0x000000001785cd5c        0x0 arch/arm/cpu/armv7/start.o
 .rel.text.dfu_write_from_mem_addr
                0x000000001785cd5c        0x0 arch/arm/cpu/armv7/start.o
 .rel.text.mmc_file_op
                0x000000001785cd5c       0x70 arch/arm/cpu/armv7/start.o
 .rel.text.dfu_free_entity_mmc
                0x000000001785cdcc        0x8 arch/arm/cpu/armv7/start.o
 .rel.text.mmc_access_part.isra.0
                0x000000001785cdd4       0x18 arch/arm/cpu/armv7/start.o
 .rel.text.mmc_block_op
                0x000000001785cdec       0x30 arch/arm/cpu/armv7/start.o
 .rel.text.dfu_write_medium_mmc
                0x000000001785ce1c       0x20 arch/arm/cpu/armv7/start.o
 .rel.text.dfu_flush_medium_mmc
                0x000000001785ce3c       0x10 arch/arm/cpu/armv7/start.o
 .rel.text.dfu_get_medium_size_mmc
                0x000000001785ce4c       0x18 arch/arm/cpu/armv7/start.o
 .rel.text.dfu_read_medium_mmc
                0x000000001785ce64       0x20 arch/arm/cpu/armv7/start.o
 .rel.text.dfu_fill_entity_mmc
                0x000000001785ce84       0xa0 arch/arm/cpu/armv7/start.o
 .rel.text.dfu_fill_entity_sf
                0x000000001785cf24       0x80 arch/arm/cpu/armv7/start.o
 .rel.text.input_send_keycodes
                0x000000001785cfa4        0x0 arch/arm/cpu/armv7/start.o
 .rel.text.input_init
                0x000000001785cfa4        0x0 arch/arm/cpu/armv7/start.o
 .rel.text.input_stdio_register
                0x000000001785cfa4        0x0 arch/arm/cpu/armv7/start.o
 .rel.text.imx_thermal_get_temp
                0x000000001785cfa4       0x10 arch/arm/cpu/armv7/start.o
 .rel.rodata.root_info
                0x000000001785cfb4        0x8 arch/arm/cpu/armv7/start.o
 .rel.rodata.kbd_to_ansi364
                0x000000001785cfbc        0x0 arch/arm/cpu/armv7/start.o
 .rel.rodata.imx_thermal_ops
                0x000000001785cfbc        0x8 arch/arm/cpu/armv7/start.o
 .rel.u_boot_list_2_driver_2_root_driver
                0x000000001785cfc4        0x8 arch/arm/cpu/armv7/start.o
 .rel.u_boot_list_2_uclass_2_root
                0x000000001785cfcc        0x8 arch/arm/cpu/armv7/start.o
 .rel.data.dfu_list
                0x000000001785cfd4       0x10 arch/arm/cpu/armv7/start.o
 .rel.u_boot_list_2_uclass_2_thermal
                0x000000001785cfe4        0x8 arch/arm/cpu/armv7/start.o
 .rel.u_boot_list_2_driver_2_imx_thermal
                0x000000001785cfec       0x18 arch/arm/cpu/armv7/start.o
 .rel.text.gpio_set_value
                0x000000001785d004        0x8 arch/arm/cpu/armv7/start.o
 .rel.text.gpio_get_value
                0x000000001785d00c        0x8 arch/arm/cpu/armv7/start.o
 .rel.text.gpio_direction_input
                0x000000001785d014        0x8 arch/arm/cpu/armv7/start.o
 .rel.text.gpio_direction_output
                0x000000001785d01c        0x8 arch/arm/cpu/armv7/start.o
 .rel.text.i2c_get_adapter
                0x000000001785d024       0x18 arch/arm/cpu/armv7/start.o
 .rel.text.i2c_init_bus
                0x000000001785d03c       0x10 arch/arm/cpu/armv7/start.o
 .rel.text.i2c_set_bus_num
                0x000000001785d04c       0x18 arch/arm/cpu/armv7/start.o
 .rel.text.wait_for_sr_state
                0x000000001785d064       0x18 arch/arm/cpu/armv7/start.o
 .rel.text.bus_i2c_set_bus_speed
                0x000000001785d07c        0x8 arch/arm/cpu/armv7/start.o
 .rel.text.mxc_i2c_set_bus_speed
                0x000000001785d084        0x8 arch/arm/cpu/armv7/start.o
 .rel.text.i2c_imx_stop
                0x000000001785d08c       0x10 arch/arm/cpu/armv7/start.o
 .rel.text.i2c_init_transfer
                0x000000001785d09c       0x18 arch/arm/cpu/armv7/start.o
 .rel.text.mxc_i2c_probe
                0x000000001785d0b4        0x8 arch/arm/cpu/armv7/start.o
 .rel.text.mxc_i2c_read
                0x000000001785d0bc        0x8 arch/arm/cpu/armv7/start.o
 .rel.text.mxc_i2c_write
                0x000000001785d0c4        0x8 arch/arm/cpu/armv7/start.o
 .rel.text.i2c_get_base
                0x000000001785d0cc        0x0 arch/arm/cpu/armv7/start.o
 .rel.text.bus_i2c_init
                0x000000001785d0cc        0x8 arch/arm/cpu/armv7/start.o
 .rel.u_boot_list_2_i2c_2_mxc0
                0x000000001785d0d4       0x30 arch/arm/cpu/armv7/start.o
 .rel.u_boot_list_2_i2c_2_mxc1
                0x000000001785d104       0x30 arch/arm/cpu/armv7/start.o
 .rel.u_boot_list_2_i2c_2_mxc2
                0x000000001785d134       0x30 arch/arm/cpu/armv7/start.o
 .rel.text.esdhc_send_cmd
                0x000000001785d164       0x20 arch/arm/cpu/armv7/start.o
 .rel.text.fsl_esdhc_initialize
                0x000000001785d184       0x20 arch/arm/cpu/armv7/start.o
 .rel.text.fdt_fixup_esdhc
                0x000000001785d1a4        0x0 arch/arm/cpu/armv7/start.o
 .rel.text.mmc_set_capacity
                0x000000001785d1a4       0x40 arch/arm/cpu/armv7/start.o
 .rel.text.mmc_send_status
                0x000000001785d1e4       0x10 arch/arm/cpu/armv7/start.o
 .rel.text.find_mmc_device
                0x000000001785d1f4       0x10 arch/arm/cpu/armv7/start.o
 .rel.text.mmc_bread
                0x000000001785d204       0x10 arch/arm/cpu/armv7/start.o
 .rel.text.mmc_select_hwpart
                0x000000001785d214        0x8 arch/arm/cpu/armv7/start.o
 .rel.text.mmc_hwpart_config
                0x000000001785d21c       0x48 arch/arm/cpu/armv7/start.o
 .rel.text.mmc_startup
                0x000000001785d264       0xa8 arch/arm/cpu/armv7/start.o
 .rel.text.mmc_register
                0x000000001785d30c        0x0 arch/arm/cpu/armv7/start.o
 .rel.text.mmc_create
                0x000000001785d30c       0x28 arch/arm/cpu/armv7/start.o
 .rel.text.mmc_start_init
                0x000000001785d334       0x10 arch/arm/cpu/armv7/start.o
 .rel.text.print_mmc_devices
                0x000000001785d344       0x40 arch/arm/cpu/armv7/start.o
 .rel.text.get_mmc_num
                0x000000001785d384        0x8 arch/arm/cpu/armv7/start.o
 .rel.text.mmc_initialize
                0x000000001785d38c       0x18 arch/arm/cpu/armv7/start.o
 .rel.text.mmc_berase
                0x000000001785d3a4       0x10 arch/arm/cpu/armv7/start.o
 .rel.text.mmc_bwrite
                0x000000001785d3b4       0x18 arch/arm/cpu/armv7/start.o
 .rel.rodata.esdhc_ops
                0x000000001785d3cc       0x20 arch/arm/cpu/armv7/start.o
 .rel.text.__mtd_next_device
                0x000000001785d3ec        0x0 arch/arm/cpu/armv7/start.o
 .rel.text.del_mtd_device
                0x000000001785d3ec        0x0 arch/arm/cpu/armv7/start.o
 .rel.text.get_mtd_device
                0x000000001785d3ec        0x0 arch/arm/cpu/armv7/start.o
 .rel.text.__put_mtd_device
                0x000000001785d3ec        0x0 arch/arm/cpu/armv7/start.o
 .rel.text.add_mtd_device
                0x000000001785d3ec        0x0 arch/arm/cpu/armv7/start.o
 .rel.text.mtd_arg_off
                0x000000001785d3ec       0x10 arch/arm/cpu/armv7/start.o
 .rel.text.mtd_arg_off_size
                0x000000001785d3fc       0x28 arch/arm/cpu/armv7/start.o
 .rel.text.spi_flash_probe_slave
                0x000000001785d424       0xa0 arch/arm/cpu/armv7/start.o
 .rel.rodata.spi_flash_params_table
                0x000000001785d4c4       0x60 arch/arm/cpu/armv7/start.o
 .rel.text.fec_phy_write
                0x000000001785d524        0x8 arch/arm/cpu/armv7/start.o
 .rel.text.fec_phy_read
                0x000000001785d52c        0x8 arch/arm/cpu/armv7/start.o
 .rel.text.fec_send
                0x000000001785d534        0x8 arch/arm/cpu/armv7/start.o
 .rel.text.fec_init
                0x000000001785d53c        0x8 arch/arm/cpu/armv7/start.o
 .rel.text.fec_recv
                0x000000001785d544       0x10 arch/arm/cpu/armv7/start.o
 .rel.text.fec_probe
                0x000000001785d554       0x68 arch/arm/cpu/armv7/start.o
 .rel.text.fec_get_miibus
                0x000000001785d5bc       0x30 arch/arm/cpu/armv7/start.o
 .rel.text.phy_device_create
                0x000000001785d5ec       0x18 arch/arm/cpu/armv7/start.o
 .rel.text.genphy_update_link
                0x000000001785d604       0x28 arch/arm/cpu/armv7/start.o
 .rel.text.phy_register
                0x000000001785d62c        0x8 arch/arm/cpu/armv7/start.o
 .rel.text.get_phy_device_by_mask
                0x000000001785d634        0x8 arch/arm/cpu/armv7/start.o
 .rel.text.phy_reset
                0x000000001785d63c        0x8 arch/arm/cpu/armv7/start.o
 .rel.text.phy_connect_dev
                0x000000001785d644        0x8 arch/arm/cpu/armv7/start.o
 .rel.text.phy_connect
                0x000000001785d64c        0x0 arch/arm/cpu/armv7/start.o
 .rel.text.phy_get_interface_by_name
                0x000000001785d64c        0x0 arch/arm/cpu/armv7/start.o
 .rel.text.phy_micrel_init
                0x000000001785d64c       0x28 arch/arm/cpu/armv7/start.o
 .rel.rodata.phy_interface_strings
                0x000000001785d674        0x0 arch/arm/cpu/armv7/start.o
 .rel.data.phy_drivers
                0x000000001785d674       0x10 arch/arm/cpu/armv7/start.o
 .rel.data.genphy_driver
                0x000000001785d684       0x20 arch/arm/cpu/armv7/start.o
 .rel.data.ksz8895_driver
                0x000000001785d6a4       0x20 arch/arm/cpu/armv7/start.o
 .rel.data.KSZ8081_driver
                0x000000001785d6c4       0x20 arch/arm/cpu/armv7/start.o
 .rel.data.KSZ804_driver
                0x000000001785d6e4       0x20 arch/arm/cpu/armv7/start.o
 .rel.data.ksz9031_driver
                0x000000001785d704       0x30 arch/arm/cpu/armv7/start.o
 .rel.data.KS8721_driver
                0x000000001785d734       0x20 arch/arm/cpu/armv7/start.o
 .rel.text.get_current
                0x000000001785d754       0x10 arch/arm/cpu/armv7/start.o
 .rel.text.serial_register
                0x000000001785d764        0x8 arch/arm/cpu/armv7/start.o
 .rel.text.serial_stdio_init
                0x000000001785d76c       0x38 arch/arm/cpu/armv7/start.o
 .rel.text.serial_assign
                0x000000001785d7a4       0x10 arch/arm/cpu/armv7/start.o
 .rel.text.serial_reinit_all
                0x000000001785d7b4        0x0 arch/arm/cpu/armv7/start.o
 .rel.text.on_baudrate
                0x000000001785d7b4       0x18 arch/arm/cpu/armv7/start.o
 .rel.text.mxc_serial_initialize
                0x000000001785d7cc        0x8 arch/arm/cpu/armv7/start.o
 .rel.text.default_serial_console
                0x000000001785d7d4        0x8 arch/arm/cpu/armv7/start.o
 .rel.u_boot_list_2_env_clbk_2_baudrate
                0x000000001785d7dc       0x10 arch/arm/cpu/armv7/start.o
 .rel.data.mxc_serial_drv
                0x000000001785d7ec       0x30 arch/arm/cpu/armv7/start.o
 .rel.text.spi_set_wordlen
                0x000000001785d81c        0x0 arch/arm/cpu/armv7/start.o
 .rel.text.spi_xchg_single
                0x000000001785d81c        0x8 arch/arm/cpu/armv7/start.o
 .rel.text.spi_setup_slave
                0x000000001785d824       0x20 arch/arm/cpu/armv7/start.o
 .rel.text.spi_claim_bus
                0x000000001785d844       0x10 arch/arm/cpu/armv7/start.o
 .rel.text.is_eth_dev_on_usb_host
                0x000000001785d854        0x0 arch/arm/cpu/armv7/start.o
 .rel.text.usb_host_eth_scan
                0x000000001785d854       0x40 arch/arm/cpu/armv7/start.o
 .rel.text.asix_init
                0x000000001785d894       0x18 arch/arm/cpu/armv7/start.o
 .rel.text.asix_eth_before_probe
                0x000000001785d8ac        0x8 arch/arm/cpu/armv7/start.o
 .rel.text.asix_eth_probe
                0x000000001785d8b4        0x8 arch/arm/cpu/armv7/start.o
 .rel.text.asix_eth_get_info
                0x000000001785d8bc       0x40 arch/arm/cpu/armv7/start.o
 .rel.rodata.prob_dev
                0x000000001785d8fc       0x18 arch/arm/cpu/armv7/start.o
 .rel.text.usb_ep_autoconfig
                0x000000001785d914        0x8 arch/arm/cpu/armv7/start.o
 .rel.text.usb_ep_autoconfig_reset
                0x000000001785d91c        0x8 arch/arm/cpu/armv7/start.o
 .rel.text.ci_ep_free_request
                0x000000001785d924        0x8 arch/arm/cpu/armv7/start.o
 .rel.text.ci_ep_alloc_request
                0x000000001785d92c        0x8 arch/arm/cpu/armv7/start.o
 .rel.text.ci_flush_qtd
                0x000000001785d934        0x8 arch/arm/cpu/armv7/start.o
 .rel.text.ci_flush_qh
                0x000000001785d93c        0x8 arch/arm/cpu/armv7/start.o
 .rel.text.stop_activity
                0x000000001785d944        0x8 arch/arm/cpu/armv7/start.o
 .rel.text.ep_enable
                0x000000001785d94c        0x8 arch/arm/cpu/armv7/start.o
 .rel.text.ci_ep_enable
                0x000000001785d954        0x8 arch/arm/cpu/armv7/start.o
 .rel.text.ci_ep_submit_next_request
                0x000000001785d95c        0x8 arch/arm/cpu/armv7/start.o
 .rel.text.ci_ep_queue
                0x000000001785d964       0x10 arch/arm/cpu/armv7/start.o
 .rel.text.udc_irq
                0x000000001785d974       0x38 arch/arm/cpu/armv7/start.o
 .rel.text.usb_gadget_handle_interrupts
                0x000000001785d9ac        0x8 arch/arm/cpu/armv7/start.o
 .rel.text.udc_disconnect
                0x000000001785d9b4        0x8 arch/arm/cpu/armv7/start.o
 .rel.text.ci_pullup
                0x000000001785d9bc        0x8 arch/arm/cpu/armv7/start.o
 .rel.text.usb_gadget_register_driver
                0x000000001785d9c4       0x30 arch/arm/cpu/armv7/start.o
 .rel.text.usb_gadget_unregister_driver
                0x000000001785d9f4        0x8 arch/arm/cpu/armv7/start.o
 .rel.text.dfu_usb_get_reset
                0x000000001785d9fc        0x8 arch/arm/cpu/armv7/start.o
 .rel.text.composite_suspend
                0x000000001785da04        0x8 arch/arm/cpu/armv7/start.o
 .rel.text.composite_resume
                0x000000001785da0c        0x8 arch/arm/cpu/armv7/start.o
 .rel.text.composite_unbind
                0x000000001785da14       0x28 arch/arm/cpu/armv7/start.o
 .rel.text.composite_bind
                0x000000001785da3c       0x10 arch/arm/cpu/armv7/start.o
 .rel.text.g_dnl_do_config
                0x000000001785da4c       0x10 arch/arm/cpu/armv7/start.o
 .rel.text.composite_disconnect
                0x000000001785da5c        0x8 arch/arm/cpu/armv7/start.o
 .rel.text.composite_setup
                0x000000001785da64       0xb8 arch/arm/cpu/armv7/start.o
 .rel.text.usb_composite_register
                0x000000001785db1c       0x18 arch/arm/cpu/armv7/start.o
 .rel.text.usb_composite_unregister
                0x000000001785db34       0x10 arch/arm/cpu/armv7/start.o
 .rel.text.g_dnl_set_serialnumber
                0x000000001785db44        0x8 arch/arm/cpu/armv7/start.o
 .rel.text.g_dnl_bind
                0x000000001785db4c       0x28 arch/arm/cpu/armv7/start.o
 .rel.text.g_dnl_detach
                0x000000001785db74        0x8 arch/arm/cpu/armv7/start.o
 .rel.text.g_dnl_trigger_detach
                0x000000001785db7c        0x8 arch/arm/cpu/armv7/start.o
 .rel.text.g_dnl_clear_detach
                0x000000001785db84        0x8 arch/arm/cpu/armv7/start.o
 .rel.text.g_dnl_register
                0x000000001785db8c       0x18 arch/arm/cpu/armv7/start.o
 .rel.text.g_dnl_unregister
                0x000000001785dba4        0x8 arch/arm/cpu/armv7/start.o
 .rel.text.dfu_add
                0x000000001785dbac       0x58 arch/arm/cpu/armv7/start.o
 .rel.text.dfu_handle
                0x000000001785dc04       0x10 arch/arm/cpu/armv7/start.o
 .rel.text.dfu_bind
                0x000000001785dc14       0x18 arch/arm/cpu/armv7/start.o
 .rel.text.handle_getstatus
                0x000000001785dc2c       0x28 arch/arm/cpu/armv7/start.o
 .rel.text.state_dfu_manifest_sync
                0x000000001785dc54        0x8 arch/arm/cpu/armv7/start.o
 .rel.text.state_dfu_dnload_idle
                0x000000001785dc5c       0x38 arch/arm/cpu/armv7/start.o
 .rel.text.state_app_idle
                0x000000001785dc94        0x8 arch/arm/cpu/armv7/start.o
 .rel.text.state_dfu_upload_idle
                0x000000001785dc9c       0x28 arch/arm/cpu/armv7/start.o
 .rel.text.state_dfu_manifest
                0x000000001785dcc4        0x8 arch/arm/cpu/armv7/start.o
 .rel.text.state_dfu_idle
                0x000000001785dccc       0x48 arch/arm/cpu/armv7/start.o
 .rel.text.fsg_setup
                0x000000001785dd14       0x10 arch/arm/cpu/armv7/start.o
 .rel.text.sleep_thread.isra.17
                0x000000001785dd24       0x68 arch/arm/cpu/armv7/start.o
 .rel.text.do_read
                0x000000001785dd8c       0x18 arch/arm/cpu/armv7/start.o
 .rel.text.do_write
                0x000000001785dda4       0x20 arch/arm/cpu/armv7/start.o
 .rel.text.send_status
                0x000000001785ddc4       0x10 arch/arm/cpu/armv7/start.o
 .rel.text.check_command.isra.18
                0x000000001785ddd4       0x10 arch/arm/cpu/armv7/start.o
 .rel.text.fsg_add
                0x000000001785dde4       0x70 arch/arm/cpu/armv7/start.o
 .rel.text.do_set_interface
                0x000000001785de54       0x30 arch/arm/cpu/armv7/start.o
 .rel.text.fsg_main_thread
                0x000000001785de84       0x70 arch/arm/cpu/armv7/start.o
 .rel.text.fsg_bind
                0x000000001785def4       0x38 arch/arm/cpu/armv7/start.o
 .rel.text.fsg_init
                0x000000001785df2c        0x8 arch/arm/cpu/armv7/start.o
 .rel.text.rx_bytes_expected
                0x000000001785df34       0x10 arch/arm/cpu/armv7/start.o
 .rel.text.fastboot_unbind
                0x000000001785df44        0x8 arch/arm/cpu/armv7/start.o
 .rel.text.fastboot_add
                0x000000001785df4c       0x40 arch/arm/cpu/armv7/start.o
 .rel.text.fastboot_complete
                0x000000001785df8c        0x8 arch/arm/cpu/armv7/start.o
 .rel.text.do_bootm_on_complete
                0x000000001785df94       0x20 arch/arm/cpu/armv7/start.o
 .rel.text.fastboot_tx_write_str
                0x000000001785dfb4       0x10 arch/arm/cpu/armv7/start.o
 .rel.text.rx_handler_command
                0x000000001785dfc4       0x38 arch/arm/cpu/armv7/start.o
 .rel.text.cb_oem
                0x000000001785dffc       0x18 arch/arm/cpu/armv7/start.o
 .rel.text.cb_continue
                0x000000001785e014       0x18 arch/arm/cpu/armv7/start.o
 .rel.text.cb_boot
                0x000000001785e02c       0x18 arch/arm/cpu/armv7/start.o
 .rel.text.cb_download
                0x000000001785e044       0x58 arch/arm/cpu/armv7/start.o
 .rel.text.rx_handler_dl_image
                0x000000001785e09c       0x48 arch/arm/cpu/armv7/start.o
 .rel.text.cb_getvar
                0x000000001785e0e4       0x90 arch/arm/cpu/armv7/start.o
 .rel.text.fastboot_bind
                0x000000001785e174       0x30 arch/arm/cpu/armv7/start.o
 .rel.text.fastboot_set_alt
                0x000000001785e1a4       0x50 arch/arm/cpu/armv7/start.o
 .rel.text.cb_reboot
                0x000000001785e1f4       0x28 arch/arm/cpu/armv7/start.o
 .rel.rodata.ci_ep_init
                0x000000001785e21c       0x50 arch/arm/cpu/armv7/start.o
 .rel.rodata.dfu_state
                0x000000001785e26c       0x50 arch/arm/cpu/armv7/start.o
 .rel.rodata.cmd_dispatch_info
                0x000000001785e2bc       0x60 arch/arm/cpu/armv7/start.o
 .rel.data.ci_ep_ops
                0x000000001785e31c       0x30 arch/arm/cpu/armv7/start.o
 .rel.data.ci_udc_ops
                0x000000001785e34c        0x8 arch/arm/cpu/armv7/start.o
 .rel.data.controller
                0x000000001785e354       0x10 arch/arm/cpu/armv7/start.o
 .rel.data.g_dnl_string_tab
                0x000000001785e364        0x8 arch/arm/cpu/armv7/start.o
 .rel.data.g_dnl_composite_strings
                0x000000001785e36c        0x8 arch/arm/cpu/armv7/start.o
 .rel.data.g_dnl_driver
                0x000000001785e374       0x20 arch/arm/cpu/armv7/start.o
 .rel.data.composite_driver
                0x000000001785e394       0x38 arch/arm/cpu/armv7/start.o
 .rel.data.g_dnl_string_defs
                0x000000001785e3cc       0x18 arch/arm/cpu/armv7/start.o
 .rel.data.dfu_strings
                0x000000001785e3e4        0x8 arch/arm/cpu/armv7/start.o
 .rel.data.dfu_generic_strings
                0x000000001785e3ec        0x8 arch/arm/cpu/armv7/start.o
 .rel.u_boot_list_2_g_dnl_bind_callbacks_2___usb_function_name_usb_dnl_dfu
                0x000000001785e3f4       0x10 arch/arm/cpu/armv7/start.o
 .rel.data.dfu_runtime_descs
                0x000000001785e404        0x8 arch/arm/cpu/armv7/start.o
 .rel.data.stringtab_dfu_generic
                0x000000001785e40c        0x8 arch/arm/cpu/armv7/start.o
 .rel.data.strings_dfu_generic
                0x000000001785e414        0x8 arch/arm/cpu/armv7/start.o
 .rel.data.fsg_stringtab
                0x000000001785e41c        0x8 arch/arm/cpu/armv7/start.o
 .rel.data.fsg_fs_function
                0x000000001785e424       0x18 arch/arm/cpu/armv7/start.o
 .rel.u_boot_list_2_g_dnl_bind_callbacks_2___usb_function_name_usb_dnl_ums
                0x000000001785e43c       0x10 arch/arm/cpu/armv7/start.o
 .rel.data.fsg_hs_function
                0x000000001785e44c       0x18 arch/arm/cpu/armv7/start.o
 .rel.data.fsg_strings
                0x000000001785e464        0x8 arch/arm/cpu/armv7/start.o
 .rel.data.fsg_strings_array
                0x000000001785e46c        0x8 arch/arm/cpu/armv7/start.o
 .rel.data.fastboot_string_defs
                0x000000001785e474        0x8 arch/arm/cpu/armv7/start.o
 .rel.data.fb_runtime_descs
                0x000000001785e47c       0x18 arch/arm/cpu/armv7/start.o
 .rel.data.fastboot_strings
                0x000000001785e494        0x8 arch/arm/cpu/armv7/start.o
 .rel.data.stringtab_fastboot
                0x000000001785e49c        0x8 arch/arm/cpu/armv7/start.o
 .rel.u_boot_list_2_g_dnl_bind_callbacks_2___usb_function_name_usb_dnl_fastboot
                0x000000001785e4a4       0x10 arch/arm/cpu/armv7/start.o
 .rel.text.ehci_shutdown
                0x000000001785e4b4        0x8 arch/arm/cpu/armv7/start.o
 .rel.text.ehci_td_buffer
                0x000000001785e4bc        0x8 arch/arm/cpu/armv7/start.o
 .rel.text.ehci_submit_async
                0x000000001785e4c4       0x30 arch/arm/cpu/armv7/start.o
 .rel.text.disable_periodic.isra.4
                0x000000001785e4f4        0x8 arch/arm/cpu/armv7/start.o
 .rel.text.enable_periodic.isra.5
                0x000000001785e4fc        0x8 arch/arm/cpu/armv7/start.o
 .rel.text._ehci_destroy_int_queue
                0x000000001785e504        0x8 arch/arm/cpu/armv7/start.o
 .rel.text._ehci_create_int_queue.isra.7
                0x000000001785e50c       0x10 arch/arm/cpu/armv7/start.o
 .rel.text.ehci_set_controller_priv
                0x000000001785e51c        0x0 arch/arm/cpu/armv7/start.o
 .rel.text.ehci_get_controller_priv
                0x000000001785e51c        0x0 arch/arm/cpu/armv7/start.o
 .rel.text.usb_lowlevel_stop
                0x000000001785e51c        0x8 arch/arm/cpu/armv7/start.o
 .rel.text.usb_lowlevel_init
                0x000000001785e524       0x28 arch/arm/cpu/armv7/start.o
 .rel.text.submit_control_msg
                0x000000001785e54c       0x28 arch/arm/cpu/armv7/start.o
 .rel.text.submit_int_msg
                0x000000001785e574        0x8 arch/arm/cpu/armv7/start.o
 .rel.text.usb_phy_mode
                0x000000001785e57c        0x8 arch/arm/cpu/armv7/start.o
 .rel.text.ehci_hcd_init
                0x000000001785e584        0x8 arch/arm/cpu/armv7/start.o
 .rel.rodata.default_ehci_ops
                0x000000001785e58c       0x20 arch/arm/cpu/armv7/start.o
 .rel.text.fs_probe_unsupported
                0x000000001785e5ac        0x8 arch/arm/cpu/armv7/start.o
 .rel.text.fs_get_info
                0x000000001785e5b4        0x8 arch/arm/cpu/armv7/start.o
 .rel.text.fs_close
                0x000000001785e5bc        0x8 arch/arm/cpu/armv7/start.o
 .rel.text.fs_set_blk_dev
                0x000000001785e5c4       0x28 arch/arm/cpu/armv7/start.o
 .rel.text.fs_uuid
                0x000000001785e5ec        0x0 arch/arm/cpu/armv7/start.o
 .rel.text.fs_ls
                0x000000001785e5ec        0x8 arch/arm/cpu/armv7/start.o
 .rel.text.fs_exists
                0x000000001785e5f4        0x8 arch/arm/cpu/armv7/start.o
 .rel.text.fs_size
                0x000000001785e5fc        0x8 arch/arm/cpu/armv7/start.o
 .rel.text.fs_read
                0x000000001785e604       0x10 arch/arm/cpu/armv7/start.o
 .rel.text.fs_write
                0x000000001785e614       0x10 arch/arm/cpu/armv7/start.o
 .rel.text.do_size
                0x000000001785e624        0x8 arch/arm/cpu/armv7/start.o
 .rel.text.do_load
                0x000000001785e62c       0x48 arch/arm/cpu/armv7/start.o
 .rel.text.do_ls
                0x000000001785e674        0x8 arch/arm/cpu/armv7/start.o
 .rel.text.do_save
                0x000000001785e67c       0x28 arch/arm/cpu/armv7/start.o
 .rel.text.do_fs_uuid
                0x000000001785e6a4        0x0 arch/arm/cpu/armv7/start.o
 .rel.text.do_fs_type
                0x000000001785e6a4       0x10 arch/arm/cpu/armv7/start.o
 .rel.text.get_fs
                0x000000001785e6b4        0x8 arch/arm/cpu/armv7/start.o
 .rel.text.ext4fs_free_node
                0x000000001785e6bc        0x8 arch/arm/cpu/armv7/start.o
 .rel.text.ext4fs_read_file
                0x000000001785e6c4        0x8 arch/arm/cpu/armv7/start.o
 .rel.text.ext4fs_ls
                0x000000001785e6cc       0x10 arch/arm/cpu/armv7/start.o
 .rel.text.ext4fs_read
                0x000000001785e6dc       0x10 arch/arm/cpu/armv7/start.o
 .rel.text.ext4_read_file
                0x000000001785e6ec       0x10 arch/arm/cpu/armv7/start.o
 .rel.text.ext4fs_uuid
                0x000000001785e6fc        0x8 arch/arm/cpu/armv7/start.o
 .rel.text.put_ext4
                0x000000001785e704       0x20 arch/arm/cpu/armv7/start.o
 .rel.text.ext4fs_set_block_bmap
                0x000000001785e724        0x8 arch/arm/cpu/armv7/start.o
 .rel.text.ext4fs_reset_block_bmap
                0x000000001785e72c        0x8 arch/arm/cpu/armv7/start.o
 .rel.text.ext4fs_set_inode_bmap
                0x000000001785e734        0x8 arch/arm/cpu/armv7/start.o
 .rel.text.ext4fs_reset_inode_bmap
                0x000000001785e73c        0x8 arch/arm/cpu/armv7/start.o
 .rel.text.ext4fs_get_new_blk_no
                0x000000001785e744       0x10 arch/arm/cpu/armv7/start.o
 .rel.text.ext4fs_get_new_inode_no
                0x000000001785e754       0x10 arch/arm/cpu/armv7/start.o
 .rel.text.ext4fs_allocate_blocks
                0x000000001785e764       0x30 arch/arm/cpu/armv7/start.o
 .rel.text.ext4fs_iget
                0x000000001785e794        0x8 arch/arm/cpu/armv7/start.o
 .rel.text.read_allocated_block
                0x000000001785e79c       0xb8 arch/arm/cpu/armv7/start.o
 .rel.text.ext4fs_update_parent_dentry
                0x000000001785e854       0x30 arch/arm/cpu/armv7/start.o
 .rel.text.ext4fs_get_parent_inode_num
                0x000000001785e884       0x28 arch/arm/cpu/armv7/start.o
 .rel.text.ext4fs_filename_check
                0x000000001785e8ac       0x10 arch/arm/cpu/armv7/start.o
 .rel.text.ext4fs_reinit_global
                0x000000001785e8bc       0x48 arch/arm/cpu/armv7/start.o
 .rel.text.ext4fs_close
                0x000000001785e904       0x10 arch/arm/cpu/armv7/start.o
 .rel.text.ext4fs_iterate_dir
                0x000000001785e914       0x28 arch/arm/cpu/armv7/start.o
 .rel.text.ext4fs_find_file1
                0x000000001785e93c       0x10 arch/arm/cpu/armv7/start.o
 .rel.text.ext4fs_find_file
                0x000000001785e94c        0x8 arch/arm/cpu/armv7/start.o
 .rel.text.ext4fs_open
                0x000000001785e954       0x10 arch/arm/cpu/armv7/start.o
 .rel.text.ext4fs_mount
                0x000000001785e964       0x10 arch/arm/cpu/armv7/start.o
 .rel.text.ext4fs_set_blk_dev
                0x000000001785e974       0x18 arch/arm/cpu/armv7/start.o
 .rel.text.ext4fs_devread
                0x000000001785e98c       0x40 arch/arm/cpu/armv7/start.o
 .rel.text.ext4fs_update
                0x000000001785e9cc       0x10 arch/arm/cpu/armv7/start.o
 .rel.text.ext4fs_get_bgdtable
                0x000000001785e9dc        0x8 arch/arm/cpu/armv7/start.o
 .rel.text.ext4fs_deinit
                0x000000001785e9e4        0x8 arch/arm/cpu/armv7/start.o
 .rel.text.ext4fs_init
                0x000000001785e9ec       0x10 arch/arm/cpu/armv7/start.o
 .rel.text.ext4fs_write
                0x000000001785e9fc       0x60 arch/arm/cpu/armv7/start.o
 .rel.text.ext4_write_file
                0x000000001785ea5c       0x10 arch/arm/cpu/armv7/start.o
 .rel.text.ext4fs_dump_metadata
                0x000000001785ea6c        0x8 arch/arm/cpu/armv7/start.o
 .rel.text.ext4fs_free_journal
                0x000000001785ea74       0x28 arch/arm/cpu/armv7/start.o
 .rel.text.ext4fs_log_gdt
                0x000000001785ea9c       0x10 arch/arm/cpu/armv7/start.o
 .rel.text.ext4fs_log_journal
                0x000000001785eaac       0x20 arch/arm/cpu/armv7/start.o
 .rel.text.ext4fs_put_metadata
                0x000000001785eacc       0x20 arch/arm/cpu/armv7/start.o
 .rel.text.print_revoke_blks
                0x000000001785eaec        0x0 arch/arm/cpu/armv7/start.o
 .rel.text.ext4fs_push_revoke_blk
                0x000000001785eaec       0x28 arch/arm/cpu/armv7/start.o
 .rel.text.ext4fs_free_revoke_blks
                0x000000001785eb14       0x18 arch/arm/cpu/armv7/start.o
 .rel.text.check_blknr_for_revoke
                0x000000001785eb2c        0x8 arch/arm/cpu/armv7/start.o
 .rel.text.recover_transaction
                0x000000001785eb34       0x10 arch/arm/cpu/armv7/start.o
 .rel.text.print_jrnl_status
                0x000000001785eb44       0x10 arch/arm/cpu/armv7/start.o
 .rel.text.ext4fs_check_journal_state
                0x000000001785eb54       0x18 arch/arm/cpu/armv7/start.o
 .rel.text.ext4fs_init_journal
                0x000000001785eb6c       0x38 arch/arm/cpu/armv7/start.o
 .rel.text.ext4fs_update_journal
                0x000000001785eba4       0x20 arch/arm/cpu/armv7/start.o
 .rel.text.ext2fs_crc16
                0x000000001785ebc4        0x8 arch/arm/cpu/armv7/start.o
 .rel.text.downcase
                0x000000001785ebcc        0x8 arch/arm/cpu/armv7/start.o
 .rel.text.disk_read
                0x000000001785ebd4       0x10 arch/arm/cpu/armv7/start.o
 .rel.text.disk_write
                0x000000001785ebe4       0x20 arch/arm/cpu/armv7/start.o
 .rel.text.flush_fat_buffer
                0x000000001785ec04        0x8 arch/arm/cpu/armv7/start.o
 .rel.text.get_fatent_value
                0x000000001785ec0c        0x8 arch/arm/cpu/armv7/start.o
 .rel.text.get_cluster
                0x000000001785ec14        0x8 arch/arm/cpu/armv7/start.o
 .rel.text.set_cluster
                0x000000001785ec1c        0x8 arch/arm/cpu/armv7/start.o
 .rel.text.read_bootsectandvi
                0x000000001785ec24       0x20 arch/arm/cpu/armv7/start.o
 .rel.text.set_name
                0x000000001785ec44        0x8 arch/arm/cpu/armv7/start.o
 .rel.text.check_overflow
                0x000000001785ec4c       0x10 arch/arm/cpu/armv7/start.o
 .rel.text.get_vfatname
                0x000000001785ec5c       0x10 arch/arm/cpu/armv7/start.o
 .rel.text.flush_dir_table.constprop.8
                0x000000001785ec6c       0x20 arch/arm/cpu/armv7/start.o
 .rel.text.do_fat_write
                0x000000001785ec8c       0x80 arch/arm/cpu/armv7/start.o
 .rel.text.fat_set_blk_dev
                0x000000001785ed0c       0x28 arch/arm/cpu/armv7/start.o
 .rel.text.fat_register_device
                0x000000001785ed34        0x0 arch/arm/cpu/armv7/start.o
 .rel.text.do_fat_read_at
                0x000000001785ed34       0x60 arch/arm/cpu/armv7/start.o
 .rel.text.file_fat_detectfs
                0x000000001785ed94       0xb0 arch/arm/cpu/armv7/start.o
 .rel.text.file_fat_read_at
                0x000000001785ee44        0x8 arch/arm/cpu/armv7/start.o
 .rel.text.fat_read_file
                0x000000001785ee4c        0x8 arch/arm/cpu/armv7/start.o
 .rel.text.file_fat_write
                0x000000001785ee54       0x10 arch/arm/cpu/armv7/start.o
 .rel.text.file_getfsname
                0x000000001785ee64        0x0 arch/arm/cpu/armv7/start.o
 .rel.text.file_cd
                0x000000001785ee64        0x0 arch/arm/cpu/armv7/start.o
 .rel.text.file_detectfs
                0x000000001785ee64        0x0 arch/arm/cpu/armv7/start.o
 .rel.text.file_ls
                0x000000001785ee64        0x0 arch/arm/cpu/armv7/start.o
 .rel.text.file_read
                0x000000001785ee64        0x0 arch/arm/cpu/armv7/start.o
 .rel.rodata.filesystems
                0x000000001785ee64        0x0 arch/arm/cpu/armv7/start.o
 .rel.data.fstypes
                0x000000001785ee64       0xd8 arch/arm/cpu/armv7/start.o
 .rel.text.inflate_fast
                0x000000001785ef3c       0x18 arch/arm/cpu/armv7/start.o
 .rel.text.inflate_table
                0x000000001785ef54       0x20 arch/arm/cpu/armv7/start.o
 .rel.text.inflateInit2_
                0x000000001785ef74       0x10 arch/arm/cpu/armv7/start.o
 .rel.text.inflate
                0x000000001785ef84      0x188 arch/arm/cpu/armv7/start.o
 .rel.text.fdt_next_tag
                0x000000001785f10c       0x48 arch/arm/cpu/armv7/start.o
 .rel.text.fdt_get_phandle
                0x000000001785f154        0x0 arch/arm/cpu/armv7/start.o
 .rel.text.fdt_get_alias_namelen
                0x000000001785f154        0x8 arch/arm/cpu/armv7/start.o
 .rel.text.fdt_node_check_compatible
                0x000000001785f15c        0x0 arch/arm/cpu/armv7/start.o
 .rel.text.fdt_strerror
                0x000000001785f15c       0x20 arch/arm/cpu/armv7/start.o
 .rel.text.fdt_find_regions
                0x000000001785f17c        0x0 arch/arm/cpu/armv7/start.o
 .rel.text.fdt_create_empty_tree
                0x000000001785f17c        0x0 arch/arm/cpu/armv7/start.o
 .rel.text.fdt_address_cells
                0x000000001785f17c        0x8 arch/arm/cpu/armv7/start.o
 .rel.text.fdt_size_cells
                0x000000001785f184        0x8 arch/arm/cpu/armv7/start.o
 .rel.text.fdt_add_alias_regions
                0x000000001785f18c        0x0 arch/arm/cpu/armv7/start.o
 .rel.text.fdt_next_region
                0x000000001785f18c        0x0 arch/arm/cpu/armv7/start.o
 .rel.text.crc7
                0x000000001785f18c        0x0 arch/arm/cpu/armv7/start.o
 .rel.text.cyg_crc16
                0x000000001785f18c        0x8 arch/arm/cpu/armv7/start.o
 .rel.text.gzwrite_progress
                0x000000001785f194        0x0 arch/arm/cpu/armv7/start.o
 .rel.text.gzwrite_progress_finish
                0x000000001785f194        0x0 arch/arm/cpu/armv7/start.o
 .rel.text.gzwrite
                0x000000001785f194        0x0 arch/arm/cpu/armv7/start.o
 .rel.text.zunzip
                0x000000001785f194       0x28 arch/arm/cpu/armv7/start.o
 .rel.text.gunzip
                0x000000001785f1bc       0x10 arch/arm/cpu/armv7/start.o
 .rel.text.initcall_run_list
                0x000000001785f1cc        0x8 arch/arm/cpu/armv7/start.o
 .rel.text.lmb_alloc_base
                0x000000001785f1d4        0x8 arch/arm/cpu/armv7/start.o
 .rel.text.strmhz
                0x000000001785f1dc        0x0 arch/arm/cpu/armv7/start.o
 .rel.text.list_sort
                0x000000001785f1dc        0x0 arch/arm/cpu/armv7/start.o
 .rel.text.match_string
                0x000000001785f1dc        0x8 arch/arm/cpu/armv7/start.o
 .rel.text.match_entry
                0x000000001785f1e4        0x8 arch/arm/cpu/armv7/start.o
 .rel.text.hcreate_r
                0x000000001785f1ec        0x8 arch/arm/cpu/armv7/start.o
 .rel.text.hdestroy_r
                0x000000001785f1f4        0x8 arch/arm/cpu/armv7/start.o
 .rel.text.hmatch_r
                0x000000001785f1fc        0x8 arch/arm/cpu/armv7/start.o
 .rel.text.hsearch_r
                0x000000001785f204        0x8 arch/arm/cpu/armv7/start.o
 .rel.text.hdelete_r
                0x000000001785f20c        0x8 arch/arm/cpu/armv7/start.o
 .rel.text.hexport_r
                0x000000001785f214       0x18 arch/arm/cpu/armv7/start.o
 .rel.text.himport_r
                0x000000001785f22c       0x20 arch/arm/cpu/armv7/start.o
 .rel.text.display_options
                0x000000001785f24c       0x10 arch/arm/cpu/armv7/start.o
 .rel.text.print_freq
                0x000000001785f25c        0x0 arch/arm/cpu/armv7/start.o
 .rel.text.print_size
                0x000000001785f25c       0x28 arch/arm/cpu/armv7/start.o
 .rel.text.print_buffer
                0x000000001785f284       0x28 arch/arm/cpu/armv7/start.o
 .rel.text.crc32_no_comp
                0x000000001785f2ac        0x8 arch/arm/cpu/armv7/start.o
 .rel.text.hang
                0x000000001785f2b4        0x8 arch/arm/cpu/armv7/start.o
 .rel.text.skip_spaces
                0x000000001785f2bc        0x8 arch/arm/cpu/armv7/start.o
 .rel.text.strim
                0x000000001785f2c4        0x8 arch/arm/cpu/armv7/start.o
 .rel.text.emit
                0x000000001785f2cc        0x8 arch/arm/cpu/armv7/start.o
 .rel.text.store_char_in_data
                0x000000001785f2d4        0x8 arch/arm/cpu/armv7/start.o
 .rel.text.match
                0x000000001785f2dc       0x98 arch/arm/cpu/armv7/start.o
 .rel.text.quantifier
                0x000000001785f374        0x8 arch/arm/cpu/armv7/start.o
 .rel.text.fixup_branch
                0x000000001785f37c        0x8 arch/arm/cpu/armv7/start.o
 .rel.text.compile
                0x000000001785f384       0x28 arch/arm/cpu/armv7/start.o
 .rel.text.slre_compile
                0x000000001785f3ac        0x8 arch/arm/cpu/armv7/start.o
 .rel.text.strncasecmp
                0x000000001785f3b4        0x0 arch/arm/cpu/armv7/start.o
 .rel.text.strtok
                0x000000001785f3b4        0x8 arch/arm/cpu/armv7/start.o
 .rel.text.string.isra.0
                0x000000001785f3bc        0x8 arch/arm/cpu/armv7/start.o
 .rel.text.number.isra.4
                0x000000001785f3c4        0x8 arch/arm/cpu/armv7/start.o
 .rel.text.vsnprintf_internal.isra.6
                0x000000001785f3cc       0x10 arch/arm/cpu/armv7/start.o
 .rel.text.simple_strtoul
                0x000000001785f3dc        0x8 arch/arm/cpu/armv7/start.o
 .rel.text.simple_strtoull
                0x000000001785f3e4        0x8 arch/arm/cpu/armv7/start.o
 .rel.text.trailing_strtoln
                0x000000001785f3ec        0x0 arch/arm/cpu/armv7/start.o
 .rel.text.__assert_fail
                0x000000001785f3ec        0x0 arch/arm/cpu/armv7/start.o
 .rel.text.simple_itoa
                0x000000001785f3ec        0x8 arch/arm/cpu/armv7/start.o
 .rel.text.print_grouped_ull
                0x000000001785f3f4        0x0 arch/arm/cpu/armv7/start.o
 .rel.rodata.z_errmsg
                0x000000001785f3f4        0x0 arch/arm/cpu/armv7/start.o
 .rel.rodata.fdt_errtable
                0x000000001785f3f4       0x58 arch/arm/cpu/armv7/start.o
 .rel.data.current
                0x000000001785f44c        0x0 arch/arm/cpu/armv7/start.o
 .rel.text.arp_init
                0x000000001785f44c       0x30 arch/arm/cpu/armv7/start.o
 .rel.text.arp_raw_request
                0x000000001785f47c       0x18 arch/arm/cpu/armv7/start.o
 .rel.text.arp_request
                0x000000001785f494       0x38 arch/arm/cpu/armv7/start.o
 .rel.text.arp_timeout_check
                0x000000001785f4cc       0x20 arch/arm/cpu/armv7/start.o
 .rel.text.arp_receive
                0x000000001785f4ec       0x40 arch/arm/cpu/armv7/start.o
 .rel.text.dhcp_process_options
                0x000000001785f52c       0x68 arch/arm/cpu/armv7/start.o
 .rel.text.dhcp_handler
                0x000000001785f594       0x88 arch/arm/cpu/armv7/start.o
 .rel.text.bootp_reset
                0x000000001785f61c       0x20 arch/arm/cpu/armv7/start.o
 .rel.text.bootp_request
                0x000000001785f63c       0x60 arch/arm/cpu/armv7/start.o
 .rel.text.bootp_timeout_handler
                0x000000001785f69c       0x20 arch/arm/cpu/armv7/start.o
 .rel.text.on_ethaddr
                0x000000001785f6bc        0x8 arch/arm/cpu/armv7/start.o
 .rel.text.eth_setenv_enetaddr
                0x000000001785f6c4        0x8 arch/arm/cpu/armv7/start.o
 .rel.text.eth_getenv_enetaddr_by_index
                0x000000001785f6cc       0x10 arch/arm/cpu/armv7/start.o
 .rel.text.eth_get_dev_by_name
                0x000000001785f6dc       0x28 arch/arm/cpu/armv7/start.o
 .rel.text.eth_get_dev_by_index
                0x000000001785f704        0x8 arch/arm/cpu/armv7/start.o
 .rel.text.eth_get_dev_index
                0x000000001785f70c        0x8 arch/arm/cpu/armv7/start.o
 .rel.text.eth_write_hwaddr
                0x000000001785f714       0x58 arch/arm/cpu/armv7/start.o
 .rel.text.eth_halt
                0x000000001785f76c        0x8 arch/arm/cpu/armv7/start.o
 .rel.text.eth_send
                0x000000001785f774        0x8 arch/arm/cpu/armv7/start.o
 .rel.text.eth_rx
                0x000000001785f77c        0x8 arch/arm/cpu/armv7/start.o
 .rel.text.eth_get_name
                0x000000001785f784       0x10 arch/arm/cpu/armv7/start.o
 .rel.text.eth_current_changed
                0x000000001785f794       0x10 arch/arm/cpu/armv7/start.o
 .rel.text.eth_register
                0x000000001785f7a4       0x18 arch/arm/cpu/armv7/start.o
 .rel.text.eth_unregister
                0x000000001785f7bc       0x10 arch/arm/cpu/armv7/start.o
 .rel.text.eth_initialize
                0x000000001785f7cc       0x78 arch/arm/cpu/armv7/start.o
 .rel.text.eth_try_another
                0x000000001785f844       0x28 arch/arm/cpu/armv7/start.o
 .rel.text.eth_init
                0x000000001785f86c       0x10 arch/arm/cpu/armv7/start.o
 .rel.text.eth_set_current
                0x000000001785f87c       0x28 arch/arm/cpu/armv7/start.o
 .rel.text.net_clear_handlers
                0x000000001785f8a4       0x20 arch/arm/cpu/armv7/start.o
 .rel.text.start_again_timeout_handler
                0x000000001785f8c4        0x8 arch/arm/cpu/armv7/start.o
 .rel.text.on_ipaddr
                0x000000001785f8cc        0x8 arch/arm/cpu/armv7/start.o
 .rel.text.on_gatewayip
                0x000000001785f8d4        0x8 arch/arm/cpu/armv7/start.o
 .rel.text.on_netmask
                0x000000001785f8dc        0x8 arch/arm/cpu/armv7/start.o
 .rel.text.on_serverip
                0x000000001785f8e4        0x8 arch/arm/cpu/armv7/start.o
 .rel.text.net_init_loop
                0x000000001785f8ec       0x10 arch/arm/cpu/armv7/start.o
 .rel.text.net_auto_load
                0x000000001785f8fc       0x18 arch/arm/cpu/armv7/start.o
 .rel.text.net_init
                0x000000001785f914       0x20 arch/arm/cpu/armv7/start.o
 .rel.text.net_start_again
                0x000000001785f934       0x78 arch/arm/cpu/armv7/start.o
 .rel.text.net_loop
                0x000000001785f9ac      0x180 arch/arm/cpu/armv7/start.o
 .rel.text.net_get_udp_handler
                0x000000001785fb2c        0x0 arch/arm/cpu/armv7/start.o
 .rel.text.net_set_udp_handler
                0x000000001785fb2c       0x10 arch/arm/cpu/armv7/start.o
 .rel.text.net_get_arp_handler
                0x000000001785fb3c        0x8 arch/arm/cpu/armv7/start.o
 .rel.text.net_set_arp_handler
                0x000000001785fb44        0x0 arch/arm/cpu/armv7/start.o
 .rel.text.net_set_timeout_handler
                0x000000001785fb44       0x18 arch/arm/cpu/armv7/start.o
 .rel.text.net_process_received_packet
                0x000000001785fb5c       0x38 arch/arm/cpu/armv7/start.o
 .rel.text.net_eth_hdr_size
                0x000000001785fb94        0x8 arch/arm/cpu/armv7/start.o
 .rel.text.net_set_ether
                0x000000001785fb9c       0x10 arch/arm/cpu/armv7/start.o
 .rel.text.net_update_ether
                0x000000001785fbac        0x8 arch/arm/cpu/armv7/start.o
 .rel.text.net_set_ip_header
                0x000000001785fbb4        0x8 arch/arm/cpu/armv7/start.o
 .rel.text.net_set_udp_header
                0x000000001785fbbc        0x8 arch/arm/cpu/armv7/start.o
 .rel.text.net_send_udp_packet
                0x000000001785fbc4       0x40 arch/arm/cpu/armv7/start.o
 .rel.text.on_bootfile
                0x000000001785fc04        0x8 arch/arm/cpu/armv7/start.o
 .rel.text.ip_to_string
                0x000000001785fc0c        0x8 arch/arm/cpu/armv7/start.o
 .rel.text.vlan_to_string
                0x000000001785fc14        0x0 arch/arm/cpu/armv7/start.o
 .rel.text.on_nvlan
                0x000000001785fc14        0x8 arch/arm/cpu/armv7/start.o
 .rel.text.on_vlan
                0x000000001785fc1c        0x8 arch/arm/cpu/armv7/start.o
 .rel.text.rpc_lookup_reply
                0x000000001785fc24       0x18 arch/arm/cpu/armv7/start.o
 .rel.text.nfs_mount_reply
                0x000000001785fc3c       0x18 arch/arm/cpu/armv7/start.o
 .rel.text.nfs_umountall_reply
                0x000000001785fc54       0x18 arch/arm/cpu/armv7/start.o
 .rel.text.nfs_lookup_reply
                0x000000001785fc6c       0x10 arch/arm/cpu/armv7/start.o
 .rel.text.nfs_readlink_reply
                0x000000001785fc7c       0x18 arch/arm/cpu/armv7/start.o
 .rel.text.rpc_add_credentials
                0x000000001785fc94        0x8 arch/arm/cpu/armv7/start.o
 .rel.text.rpc_req
                0x000000001785fc9c       0x38 arch/arm/cpu/armv7/start.o
 .rel.text.nfs_umountall_req
                0x000000001785fcd4       0x10 arch/arm/cpu/armv7/start.o
 .rel.text.nfs_lookup_req
                0x000000001785fce4        0x8 arch/arm/cpu/armv7/start.o
 .rel.text.nfs_read_req
                0x000000001785fcec        0x8 arch/arm/cpu/armv7/start.o
 .rel.text.nfs_readlink_req
                0x000000001785fcf4        0x8 arch/arm/cpu/armv7/start.o
 .rel.text.nfs_read_reply.isra.0
                0x000000001785fcfc       0x28 arch/arm/cpu/armv7/start.o
 .rel.text.nfs_send
                0x000000001785fd24       0x60 arch/arm/cpu/armv7/start.o
 .rel.text.nfs_handler
                0x000000001785fd84       0xa8 arch/arm/cpu/armv7/start.o
 .rel.text.nfs_timeout_handler
                0x000000001785fe2c       0x20 arch/arm/cpu/armv7/start.o
 .rel.text.nfs_start
                0x000000001785fe4c       0xe0 arch/arm/cpu/armv7/start.o
 .rel.text.ping_timeout_handler
                0x000000001785ff2c        0x8 arch/arm/cpu/armv7/start.o
 .rel.text.ping_start
                0x000000001785ff34       0x58 arch/arm/cpu/armv7/start.o
 .rel.text.ping_receive
                0x000000001785ff8c       0x18 arch/arm/cpu/armv7/start.o
 .rel.text.tftp_send
                0x000000001785ffa4       0xb8 arch/arm/cpu/armv7/start.o
 .rel.text.tftp_handler
                0x000000001786005c       0xc8 arch/arm/cpu/armv7/start.o
 .rel.text.tftp_timeout_handler
                0x0000000017860124       0x40 arch/arm/cpu/armv7/start.o
 .rel.text.tftp_start
                0x0000000017860164      0x130 arch/arm/cpu/armv7/start.o
 .rel.u_boot_list_2_env_clbk_2_ethaddr
                0x0000000017860294       0x10 arch/arm/cpu/armv7/start.o
 .rel.u_boot_list_2_env_clbk_2_ipaddr
                0x00000000178602a4       0x10 arch/arm/cpu/armv7/start.o
 .rel.u_boot_list_2_env_clbk_2_vlan
                0x00000000178602b4       0x10 arch/arm/cpu/armv7/start.o
 .rel.u_boot_list_2_env_clbk_2_serverip
                0x00000000178602c4       0x10 arch/arm/cpu/armv7/start.o
 .rel.u_boot_list_2_env_clbk_2_bootfile
                0x00000000178602d4       0x10 arch/arm/cpu/armv7/start.o
 .rel.u_boot_list_2_env_clbk_2_netmask
                0x00000000178602e4       0x10 arch/arm/cpu/armv7/start.o
 .rel.u_boot_list_2_env_clbk_2_nvlan
                0x00000000178602f4       0x10 arch/arm/cpu/armv7/start.o
 .rel.u_boot_list_2_env_clbk_2_gatewayip
                0x0000000017860304       0x10 arch/arm/cpu/armv7/start.o
 .rel.text.do_dm
                0x0000000017860314        0x8 arch/arm/cpu/armv7/start.o
 .rel.u_boot_list_2_cmd_2_dm
                0x000000001786031c       0x20 arch/arm/cpu/armv7/start.o
 .rel.data.test_commands
                0x000000001786033c       0x60 arch/arm/cpu/armv7/start.o
 .rel.text.raise
                0x000000001786039c        0x8 arch/arm/cpu/armv7/start.o

.rel_dyn_end    0x00000000178603a4        0x0
 *(.__rel_dyn_end)
 .__rel_dyn_end
                0x00000000178603a4        0x0 arch/arm/lib/built-in.o

.end            0x00000000178603a4        0x0
 *(.__end)
 .__end         0x00000000178603a4        0x0 arch/arm/lib/built-in.o
                0x00000000178603a4                _image_binary_end = .
                0x0000000017861000                . = ALIGN (0x1000)

.mmutable
 *(.mmutable)

.bss_start      0x0000000017856eac        0x0
 *(.__bss_start)
 .__bss_start   0x0000000017856eac        0x0 arch/arm/lib/built-in.o
                0x0000000017856eac                __bss_start
                0x0000000017856eac                __bss_base = .

.bss            0x0000000017856eac    0x4a8c0
 *(.bss*)
 .bss.modes     0x0000000017856eac        0x8 arch/arm/imx-common/built-in.o
 .bss.params    0x0000000017856eb4        0x4 arch/arm/lib/built-in.o
 .bss.flag_repeat
                0x0000000017856eb8        0x4 common/built-in.o
 .bss.buf.7235  0x0000000017856ebc       0x28 common/built-in.o
 .bss.the_command.7035
                0x0000000017856ee4      0x201 common/built-in.o
 *fill*         0x00000000178570e5        0x3 
 .bss.ifs       0x00000000178570e8        0x4 common/built-in.o
 .bss.last_return_code
                0x00000000178570ec        0x4 common/built-in.o
 .bss.map       0x00000000178570f0      0x100 common/built-in.o
 .bss.do_repeat
                0x00000000178571f0        0x4 common/built-in.o
 .bss.top_vars  0x00000000178571f4        0x4 common/built-in.o
 .bss.stored_bootdelay
                0x00000000178571f8        0x4 common/built-in.o
 .bss.monitor_flash_len
                0x00000000178571fc        0x4 common/built-in.o
                0x00000000178571fc                monitor_flash_len
 .bss.images    0x0000000017857200      0x130 common/built-in.o
                0x0000000017857200                images
 .bss.callback_list
                0x0000000017857330        0x4 common/built-in.o
 .bss.flags_list
                0x0000000017857334        0x4 common/built-in.o
 .bss.env_flash
                0x0000000017857338        0x4 common/built-in.o
 .bss.data.7651
                0x000000001785733c      0x400 common/built-in.o
 .bss.working_fdt
                0x000000001785773c        0x4 common/built-in.o
                0x000000001785773c                working_fdt
 .bss.i2c_mm_last_addr
                0x0000000017857740        0x4 common/built-in.o
 .bss.i2c_mm_last_chip
                0x0000000017857744        0x4 common/built-in.o
 .bss.i2c_dp_last_chip
                0x0000000017857748        0x4 common/built-in.o
 .bss.i2c_mm_last_alen
                0x000000001785774c        0x4 common/built-in.o
 .bss.i2c_dp_last_addr
                0x0000000017857750        0x4 common/built-in.o
 .bss.i2c_dp_last_alen
                0x0000000017857754        0x4 common/built-in.o
 .bss.send_parms
                0x0000000017857758       0x14 common/built-in.o
 .bss.os_data_addr_saved
                0x000000001785776c        0x4 common/built-in.o
 .bss.his_pad_char
                0x0000000017857770        0x1 common/built-in.o
 .bss.a_b       0x0000000017857771       0x18 common/built-in.o
 *fill*         0x0000000017857789        0x3 
 .bss.os_data_char
                0x000000001785778c        0x4 common/built-in.o
 .bss.os_data_state
                0x0000000017857790        0x4 common/built-in.o
 .bss.k_data_escape
                0x0000000017857794        0x4 common/built-in.o
 .bss.os_data_state_saved
                0x0000000017857798        0x4 common/built-in.o
 .bss.os_data_addr
                0x000000001785779c        0x4 common/built-in.o
 .bss.send_ptr  0x00000000178577a0        0x4 common/built-in.o
 .bss.his_pad_count
                0x00000000178577a4        0x4 common/built-in.o
 .bss.bin_start_address
                0x00000000178577a8        0x4 common/built-in.o
 .bss.his_quote
                0x00000000178577ac        0x1 common/built-in.o
 *fill*         0x00000000178577ad        0x3 
 .bss.os_data_init
                0x00000000178577b0        0x4 common/built-in.o
 .bss.his_eol   0x00000000178577b4        0x1 common/built-in.o
 *fill*         0x00000000178577b5        0x3 
 .bss.k_data_escape_saved
                0x00000000178577b8        0x4 common/built-in.o
 .bss.dp_last_addr
                0x00000000178577bc        0x4 common/built-in.o
 .bss.base_address
                0x00000000178577c0        0x4 common/built-in.o
 .bss.mm_last_size
                0x00000000178577c4        0x4 common/built-in.o
 .bss.mm_last_addr
                0x00000000178577c8        0x4 common/built-in.o
 .bss.dp_last_size
                0x00000000178577cc        0x4 common/built-in.o
 .bss.current_mii
                0x00000000178577d0        0x4 common/built-in.o
 .bss.mii_devs  0x00000000178577d4        0x8 common/built-in.o
 .bss.last_data
                0x00000000178577dc        0x8 common/built-in.o
 .bss.last_reg_hi
                0x00000000178577e4        0x8 common/built-in.o
 .bss.last_mask
                0x00000000178577ec        0x4 common/built-in.o
 .bss.last_addr_lo
                0x00000000178577f0        0x8 common/built-in.o
 .bss.last_op   0x00000000178577f8        0x4 common/built-in.o
 .bss.last_addr_hi
                0x00000000178577fc        0x8 common/built-in.o
 .bss.last_reg_lo
                0x0000000017857804        0x8 common/built-in.o
 .bss.last_devad_hi
                0x000000001785780c        0x4 common/built-in.o
 .bss.last_devad_lo
                0x0000000017857810        0x4 common/built-in.o
 .bss.sata_dev_desc
                0x0000000017857814       0x74 common/built-in.o
                0x0000000017857814                sata_dev_desc
 .bss.flash     0x0000000017857888        0x4 common/built-in.o
 .bss.dev_index
                0x000000001785788c        0x4 common/built-in.o
 *fill*         0x0000000017857890       0x10 
 .bss.usb_dev   0x00000000178578a0    0x12c00 common/built-in.o
 .bss.asynch_allowed
                0x000000001786a4a0        0x4 common/built-in.o
 .bss.usb_started
                0x000000001786a4a4        0x1 common/built-in.o
                0x000000001786a4a4                usb_started
 *fill*         0x000000001786a4a5        0x3 
 .bss.usb_hub_index
                0x000000001786a4a8        0x4 common/built-in.o
 .bss.hub_dev   0x000000001786a4ac      0x100 common/built-in.o
 .bss.usb_stor  0x000000001786a5ac      0x104 common/built-in.o
 .bss.usb_dev_desc
                0x000000001786a6b0      0x244 common/built-in.o
 .bss.usb_max_devs
                0x000000001786a8f4        0x4 common/built-in.o
 .bss.CBWTag    0x000000001786a8f8        0x4 common/built-in.o
 *fill*         0x000000001786a8fc        0x4 
 .bss.usb_ccb   0x000000001786a900       0xa0 common/built-in.o
 .bss.ctrlc_was_pressed
                0x000000001786a9a0        0x4 common/built-in.o
 .bss.ctrlc_disabled
                0x000000001786a9a4        0x4 common/built-in.o
 .bss.max_total_mem
                0x000000001786a9a8        0x4 common/built-in.o
 .bss.mem_malloc_brk
                0x000000001786a9ac        0x4 common/built-in.o
                0x000000001786a9ac                mem_malloc_brk
 .bss.max_sbrked_mem
                0x000000001786a9b0        0x4 common/built-in.o
 .bss.current_mallinfo
                0x000000001786a9b4       0x28 common/built-in.o
 .bss.mem_malloc_end
                0x000000001786a9dc        0x4 common/built-in.o
                0x000000001786a9dc                mem_malloc_end
 .bss.top_pad   0x000000001786a9e0        0x4 common/built-in.o
 .bss.mem_malloc_start
                0x000000001786a9e4        0x4 common/built-in.o
                0x000000001786a9e4                mem_malloc_start
 .bss.andr_tmp_str
                0x000000001786a9e8      0x201 common/built-in.o
 *fill*         0x000000001786abe9        0x3 
 .bss.stdio_devices
                0x000000001786abec        0xc common/built-in.o
                0x000000001786abec                stdio_devices
 .bss.devs      0x000000001786abf8       0x4c common/built-in.o
 .bss.hist_list
                0x000000001786ac44       0x50 common/built-in.o
 .bss.hist_lines
                0x000000001786ac94     0x2814 common/built-in.o
 .bss.hist_max  0x000000001786d4a8        0x4 common/built-in.o
 .bss.initted.6912
                0x000000001786d4ac        0x4 common/built-in.o
 .bss.hist_add_idx
                0x000000001786d4b0        0x4 common/built-in.o
 .bss.hist_num  0x000000001786d4b4        0x4 common/built-in.o
 .bss.console_buffer
                0x000000001786d4b8      0x201 common/built-in.o
                0x000000001786d4b8                console_buffer
 .bss.tmp_buf   0x000000001786d6b9      0x200 common/built-in.o
 .bss.tmp_buf.6797
                0x000000001786d8b9      0x200 common/built-in.o
 *fill*         0x000000001786dab9        0x3 
 .bss.xyz       0x000000001786dabc      0x434 common/built-in.o
 .bss.alt_num_cnt
                0x000000001786def0        0x4 drivers/built-in.o
 .bss.dfu_buf   0x000000001786def4        0x4 drivers/built-in.o
 .bss.dfu_buf_size
                0x000000001786def8        0x4 drivers/built-in.o
 .bss.dfu_hash_algo
                0x000000001786defc        0x4 drivers/built-in.o
 .bss.dfu_alt_num
                0x000000001786df00        0x4 drivers/built-in.o
 .bss.dfu_file_buf_len
                0x000000001786df04        0x4 drivers/built-in.o
 .bss.dfu_file_buf
                0x000000001786df08        0x4 drivers/built-in.o
 .bss.dfu_file_buf_filled
                0x000000001786df0c        0x4 drivers/built-in.o
 .bss.mmc_devices
                0x000000001786df10        0x8 drivers/mmc/built-in.o
 .bss.initialized.8978
                0x000000001786df18        0x4 drivers/mmc/built-in.o
 .bss.serial_devices
                0x000000001786df1c        0x4 drivers/serial/built-in.o
 .bss.serial_current
                0x000000001786df20        0x4 drivers/serial/built-in.o
 .bss.usb_eth   0x000000001786df24      0x1a4 drivers/usb/eth/built-in.o
 .bss.usb_max_eth_dev
                0x000000001786e0c8        0x4 drivers/usb/eth/built-in.o
 .bss.curr_eth_dev
                0x000000001786e0cc        0x4 drivers/usb/eth/built-in.o
 .bss.epnum     0x000000001786e0d0        0x4 drivers/usb/gadget/built-in.o
 .bss.g_dnl_detach_request
                0x000000001786e0d4        0x1 drivers/usb/gadget/built-in.o
 .bss.g_dnl_serial
                0x000000001786e0d5       0x20 drivers/usb/gadget/built-in.o
 *fill*         0x000000001786e0f5        0x3 
 .bss.composite
                0x000000001786e0f8        0x4 drivers/usb/gadget/built-in.o
 .bss.ums       0x000000001786e0fc        0x4 drivers/usb/gadget/built-in.o
                0x000000001786e0fc                ums
 .bss.state.7919
                0x000000001786e100        0x4 drivers/usb/gadget/built-in.o
 .bss.unknown.8175
                0x000000001786e104       0x10 drivers/usb/gadget/built-in.o
 .bss.the_fsg_common
                0x000000001786e114        0x4 drivers/usb/gadget/built-in.o
                0x000000001786e114                the_fsg_common
 .bss.is_high_speed
                0x000000001786e118        0x1 drivers/usb/gadget/built-in.o
 *fill*         0x000000001786e119        0x3 
 .bss.download_bytes
                0x000000001786e11c        0x4 drivers/usb/gadget/built-in.o
 .bss.fastboot_func
                0x000000001786e120        0x4 drivers/usb/gadget/built-in.o
 .bss.download_size
                0x000000001786e124        0x4 drivers/usb/gadget/built-in.o
 *fill*         0x000000001786e128       0x18 
 .bss.ehcic     0x000000001786e140      0x200 drivers/usb/host/built-in.o
 .bss.fs_partition
                0x000000001786e340       0x50 fs/built-in.o
 .bss.fs_type   0x000000001786e390        0x4 fs/built-in.o
 .bss.fs_dev_desc
                0x000000001786e394        0x4 fs/built-in.o
 .bss.ext_fs    0x000000001786e398       0x48 fs/built-in.o
                0x000000001786e398                ext_fs
 .bss.ext4fs_root
                0x000000001786e3e0        0x4 fs/built-in.o
                0x000000001786e3e0                ext4fs_root
 .bss.ext4fs_indir3_size
                0x000000001786e3e4        0x4 fs/built-in.o
                0x000000001786e3e4                ext4fs_indir3_size
 .bss.symlinknest
                0x000000001786e3e8        0x4 fs/built-in.o
 .bss.ext4fs_indir1_block
                0x000000001786e3ec        0x4 fs/built-in.o
                0x000000001786e3ec                ext4fs_indir1_block
 .bss.ext4fs_indir2_size
                0x000000001786e3f0        0x4 fs/built-in.o
                0x000000001786e3f0                ext4fs_indir2_size
 .bss.ext4fs_indir3_block
                0x000000001786e3f4        0x4 fs/built-in.o
                0x000000001786e3f4                ext4fs_indir3_block
 .bss.ext4fs_indir2_block
                0x000000001786e3f8        0x4 fs/built-in.o
                0x000000001786e3f8                ext4fs_indir2_block
 .bss.ext4fs_indir1_size
                0x000000001786e3fc        0x4 fs/built-in.o
                0x000000001786e3fc                ext4fs_indir1_size
 .bss.ext4fs_file
                0x000000001786e400        0x4 fs/built-in.o
                0x000000001786e400                ext4fs_file
 .bss.g_parent_inode
                0x000000001786e404        0x4 fs/built-in.o
                0x000000001786e404                g_parent_inode
 .bss.part_info
                0x000000001786e408        0x4 fs/built-in.o
 .bss.ext4fs_block_dev_desc
                0x000000001786e40c        0x4 fs/built-in.o
 .bss.part_offset
                0x000000001786e410        0x4 fs/built-in.o
                0x000000001786e410                part_offset
 .bss.journal_ptr
                0x000000001786e414      0x190 fs/built-in.o
                0x000000001786e414                journal_ptr
 .bss.revk_blk_list
                0x000000001786e5a4        0x4 fs/built-in.o
 .bss.gindex    0x000000001786e5a8        0x4 fs/built-in.o
                0x000000001786e5a8                gindex
 .bss.gd_index  0x000000001786e5ac        0x4 fs/built-in.o
                0x000000001786e5ac                gd_index
 .bss.dirty_block_ptr
                0x000000001786e5b0      0x190 fs/built-in.o
                0x000000001786e5b0                dirty_block_ptr
 .bss.prev_node
                0x000000001786e740        0x4 fs/built-in.o
 .bss.jrnl_blk_idx
                0x000000001786e744        0x4 fs/built-in.o
                0x000000001786e744                jrnl_blk_idx
 *fill*         0x000000001786e748       0x18 
 .bss.get_contents_vfatname_block
                0x000000001786e760    0x10000 fs/built-in.o
                0x000000001786e760                get_contents_vfatname_block
 .bss.do_fat_read_at_block
                0x000000001787e760    0x10000 fs/built-in.o
                0x000000001787e760                do_fat_read_at_block
 .bss.get_dentfromdir_block
                0x000000001788e760    0x10000 fs/built-in.o
                0x000000001788e760                get_dentfromdir_block
 .bss.empty_dentptr
                0x000000001789e760        0x4 fs/built-in.o
 .bss.cur_part_info
                0x000000001789e764       0x50 fs/built-in.o
 .bss.total_sector
                0x000000001789e7b4        0x4 fs/built-in.o
 .bss.dir_curclust
                0x000000001789e7b8        0x4 fs/built-in.o
 .bss.num_of_fats
                0x000000001789e7bc        0x1 fs/built-in.o
 *fill*         0x000000001789e7bd        0x3 
 .bss.cur_dev   0x000000001789e7c0        0x4 fs/built-in.o
 .bss.errno     0x000000001789e7c4        0x4 lib/built-in.o
                0x000000001789e7c4                errno
 .bss.___strtok
                0x000000001789e7c8        0x4 lib/built-in.o
                0x000000001789e7c8                ___strtok
 .bss.local.7041
                0x000000001789e7cc       0x16 lib/built-in.o
 .bss.arp_tx_packet_buf
                0x000000001789e7e2      0x620 net/built-in.o
 *fill*         0x000000001789ee02        0x2 
 .bss.arp_wait_packet_ethaddr
                0x000000001789ee04        0x4 net/built-in.o
                0x000000001789ee04                arp_wait_packet_ethaddr
 .bss.arp_tx_packet
                0x000000001789ee08        0x4 net/built-in.o
 .bss.arp_wait_tx_packet_size
                0x000000001789ee0c        0x4 net/built-in.o
                0x000000001789ee0c                arp_wait_tx_packet_size
 .bss.arp_wait_try
                0x000000001789ee10        0x4 net/built-in.o
                0x000000001789ee10                arp_wait_try
 .bss.net_arp_wait_reply_ip
                0x000000001789ee14        0x4 net/built-in.o
 .bss.net_arp_wait_packet_ip
                0x000000001789ee18        0x4 net/built-in.o
                0x000000001789ee18                net_arp_wait_packet_ip
 .bss.arp_wait_timer_start
                0x000000001789ee1c        0x4 net/built-in.o
                0x000000001789ee1c                arp_wait_timer_start
 .bss.dhcp_state
                0x000000001789ee20        0x4 net/built-in.o
 .bss.net_hostname
                0x000000001789ee24       0x20 net/built-in.o
                0x000000001789ee24                net_hostname
 .bss.bootp_timeout
                0x000000001789ee44        0x4 net/built-in.o
                0x000000001789ee44                bootp_timeout
 .bss.dhcp_server_ip
                0x000000001789ee48        0x4 net/built-in.o
 .bss.net_root_path
                0x000000001789ee4c       0x40 net/built-in.o
                0x000000001789ee4c                net_root_path
 .bss.bootp_ids
                0x000000001789ee8c       0x10 net/built-in.o
                0x000000001789ee8c                bootp_ids
 .bss.bootp_num_ids
                0x000000001789ee9c        0x4 net/built-in.o
                0x000000001789ee9c                bootp_num_ids
 .bss.bootp_try
                0x000000001789eea0        0x4 net/built-in.o
                0x000000001789eea0                bootp_try
 .bss.bootp_start
                0x000000001789eea4        0x4 net/built-in.o
                0x000000001789eea4                bootp_start
 .bss.dhcp_leasetime
                0x000000001789eea8        0x4 net/built-in.o
 .bss.net_nis_domain
                0x000000001789eeac       0x20 net/built-in.o
                0x000000001789eeac                net_nis_domain
 .bss.env_changed_id.9170
                0x000000001789eecc        0x4 net/built-in.o
 .bss.eth_current
                0x000000001789eed0        0x4 net/built-in.o
                0x000000001789eed0                eth_current
 .bss.act.9169  0x000000001789eed4        0x4 net/built-in.o
 .bss.first_failed.9164
                0x000000001789eed8        0x4 net/built-in.o
 .bss.index.9118
                0x000000001789eedc        0x4 net/built-in.o
 .bss.eth_devices
                0x000000001789eee0        0x4 net/built-in.o
 .bss.net_ethaddr
                0x000000001789eee4        0x6 net/built-in.o
                0x000000001789eee4                net_ethaddr
 *fill*         0x000000001789eeea        0x2 
 .bss.net_dns_server
                0x000000001789eeec        0x4 net/built-in.o
                0x000000001789eeec                net_dns_server
 .bss.net_state
                0x000000001789eef0        0x4 net/built-in.o
                0x000000001789eef0                net_state
 .bss.net_server_ip
                0x000000001789eef4        0x4 net/built-in.o
                0x000000001789eef4                net_server_ip
 .bss.net_rx_packet
                0x000000001789eef8        0x4 net/built-in.o
                0x000000001789eef8                net_rx_packet
 .bss.net_boot_file_expected_size_in_blocks
                0x000000001789eefc        0x4 net/built-in.o
                0x000000001789eefc                net_boot_file_expected_size_in_blocks
 .bss.net_rx_packets
                0x000000001789ef00       0x10 net/built-in.o
                0x000000001789ef00                net_rx_packets
 .bss.time_start
                0x000000001789ef10        0x8 net/built-in.o
 .bss.net_gateway
                0x000000001789ef18        0x4 net/built-in.o
                0x000000001789ef18                net_gateway
 .bss.net_boot_file_name
                0x000000001789ef1c       0x80 net/built-in.o
                0x000000001789ef1c                net_boot_file_name
 .bss.net_tx_packet
                0x000000001789ef9c        0x4 net/built-in.o
                0x000000001789ef9c                net_tx_packet
 .bss.udp_packet_handler
                0x000000001789efa0        0x4 net/built-in.o
 .bss.net_dev_exists
                0x000000001789efa4        0x4 net/built-in.o
 .bss.net_rx_packet_len
                0x000000001789efa8        0x4 net/built-in.o
                0x000000001789efa8                net_rx_packet_len
 .bss.net_server_ethaddr
                0x000000001789efac        0x6 net/built-in.o
                0x000000001789efac                net_server_ethaddr
 .bss.net_null_ethaddr
                0x000000001789efb2        0x6 net/built-in.o
                0x000000001789efb2                net_null_ethaddr
 .bss.net_ip_id
                0x000000001789efb8        0x4 net/built-in.o
 .bss.net_restart_wrap
                0x000000001789efbc        0x4 net/built-in.o
                0x000000001789efbc                net_restart_wrap
 .bss.net_try_count
                0x000000001789efc0        0x4 net/built-in.o
 .bss.net_restarted
                0x000000001789efc4        0x4 net/built-in.o
 .bss.time_delta
                0x000000001789efc8        0x4 net/built-in.o
 .bss.arp_packet_handler
                0x000000001789efcc        0x4 net/built-in.o
 .bss.net_netmask
                0x000000001789efd0        0x4 net/built-in.o
                0x000000001789efd0                net_netmask
 .bss.net_pkt_buf
                0x000000001789efd4     0x1e20 net/built-in.o
 .bss.net_ip    0x00000000178a0df4        0x4 net/built-in.o
                0x00000000178a0df4                net_ip
 .bss.time_handler
                0x00000000178a0df8        0x4 net/built-in.o
 .bss.net_boot_file_size
                0x00000000178a0dfc        0x4 net/built-in.o
                0x00000000178a0dfc                net_boot_file_size
 .bss.nfs_server_mount_port
                0x00000000178a0e00        0x4 net/built-in.o
 .bss.nfs_server_ip
                0x00000000178a0e04        0x4 net/built-in.o
 .bss.nfs_filename
                0x00000000178a0e08        0x4 net/built-in.o
 .bss.nfs_state
                0x00000000178a0e0c        0x4 net/built-in.o
 .bss.dirfh     0x00000000178a0e10       0x20 net/built-in.o
 .bss.nfs_len   0x00000000178a0e30        0x4 net/built-in.o
 .bss.rpc_id    0x00000000178a0e34        0x4 net/built-in.o
 .bss.fs_mounted
                0x00000000178a0e38        0x4 net/built-in.o
 .bss.default_filename
                0x00000000178a0e3c       0x4d net/built-in.o
 *fill*         0x00000000178a0e89        0x3 
 .bss.nfs_server_port
                0x00000000178a0e8c        0x4 net/built-in.o
 .bss.nfs_download_state
                0x00000000178a0e90        0x4 net/built-in.o
 .bss.nfs_path  0x00000000178a0e94        0x4 net/built-in.o
 .bss.filefh    0x00000000178a0e98       0x20 net/built-in.o
 .bss.nfs_path_buff
                0x00000000178a0eb8      0x800 net/built-in.o
 .bss.nfs_timeout_count
                0x00000000178a16b8        0x4 net/built-in.o
 .bss.nfs_our_port
                0x00000000178a16bc        0x4 net/built-in.o
 .bss.net_ping_ip
                0x00000000178a16c0        0x4 net/built-in.o
                0x00000000178a16c0                net_ping_ip
 .bss.ping_seq_number
                0x00000000178a16c4        0x2 net/built-in.o
 *fill*         0x00000000178a16c6        0x2 
 .bss.tftp_prev_block
                0x00000000178a16c8        0x4 net/built-in.o
 .bss.timeout_count
                0x00000000178a16cc        0x4 net/built-in.o
 .bss.tftp_block_wrap
                0x00000000178a16d0        0x4 net/built-in.o
 .bss.tftp_remote_port
                0x00000000178a16d4        0x4 net/built-in.o
 .bss.tftp_cur_block
                0x00000000178a16d8        0x4 net/built-in.o
 .bss.tftp_remote_ip
                0x00000000178a16dc        0x4 net/built-in.o
 .bss.tftp_our_port
                0x00000000178a16e0        0x4 net/built-in.o
 .bss.tftp_state
                0x00000000178a16e4        0x4 net/built-in.o
 .bss.tftp_filename
                0x00000000178a16e8       0x80 net/built-in.o
 .bss.tftp_block_wrap_offset
                0x00000000178a1768        0x4 net/built-in.o
                0x00000000178a176c                . = ALIGN (0x4)
                0x00000000178a176c                __bss_limit = .

.bss_end        0x00000000178a176c        0x0
 *(.__bss_end)
 .__bss_end     0x00000000178a176c        0x0 arch/arm/lib/built-in.o
                0x00000000178a176c                __bss_end

.dynsym         0x00000000178603a4       0x60
 *(.dynsym)
 .dynsym        0x00000000178603a4       0x60 arch/arm/cpu/armv7/start.o

.dynbss         0x0000000017860404        0x0
 *(.dynbss)
 .dynbss        0x0000000017860404        0x0 arch/arm/cpu/armv7/start.o

.dynstr         0x0000000017860404       0x2a
 *(.dynstr*)
 .dynstr        0x0000000017860404       0x2a arch/arm/cpu/armv7/start.o

.dynamic        0x0000000017860430       0x80
 *(.dynamic*)
 .dynamic       0x0000000017860430       0x80 arch/arm/cpu/armv7/start.o
                0x0000000017860430                _DYNAMIC

.plt            0x00000000178604b0        0x0
 *(.plt*)
 .plt           0x00000000178604b0        0x0 arch/arm/cpu/armv7/start.o

.interp         0x00000000178604b0       0x11
 *(.interp*)
 .interp        0x00000000178604b0       0x11 arch/arm/cpu/armv7/start.o

.gnu.hash
 *(.gnu.hash)

.gnu            0x00000000178604c4        0x0
 *(.gnu*)
 .gnu.version_d
                0x00000000178604c4        0x0 arch/arm/cpu/armv7/start.o
 .gnu.version   0x00000000178604c4        0x0 arch/arm/cpu/armv7/start.o
 .gnu.version_r
                0x00000000178604c4        0x0 arch/arm/cpu/armv7/start.o

.ARM.exidx
 *(.ARM.exidx*)

.gnu.linkonce.armexidx
 *(.gnu.linkonce.armexidx.*)
LOAD arch/arm/cpu/armv7/start.o
START GROUP
LOAD arch/arm/cpu/built-in.o
LOAD arch/arm/cpu/armv7/built-in.o
LOAD arch/arm/imx-common/built-in.o
LOAD arch/arm/lib/built-in.o
LOAD board/fedevel/common/built-in.o
LOAD board/fedevel/mx6openrex/built-in.o
LOAD common/built-in.o
LOAD disk/built-in.o
LOAD drivers/built-in.o
LOAD drivers/dma/built-in.o
LOAD drivers/gpio/built-in.o
LOAD drivers/i2c/built-in.o
LOAD drivers/mmc/built-in.o
LOAD drivers/mtd/built-in.o
LOAD drivers/mtd/onenand/built-in.o
LOAD drivers/mtd/spi/built-in.o
LOAD drivers/net/built-in.o
LOAD drivers/net/phy/built-in.o
LOAD drivers/pci/built-in.o
LOAD drivers/power/built-in.o
LOAD drivers/power/battery/built-in.o
LOAD drivers/power/fuel_gauge/built-in.o
LOAD drivers/power/mfd/built-in.o
LOAD drivers/power/pmic/built-in.o
LOAD drivers/power/regulator/built-in.o
LOAD drivers/serial/built-in.o
LOAD drivers/spi/built-in.o
LOAD drivers/usb/dwc3/built-in.o
LOAD drivers/usb/emul/built-in.o
LOAD drivers/usb/eth/built-in.o
LOAD drivers/usb/gadget/built-in.o
LOAD drivers/usb/gadget/udc/built-in.o
LOAD drivers/usb/host/built-in.o
LOAD drivers/usb/musb-new/built-in.o
LOAD drivers/usb/musb/built-in.o
LOAD drivers/usb/phy/built-in.o
LOAD drivers/usb/ulpi/built-in.o
LOAD fs/built-in.o
LOAD lib/built-in.o
LOAD net/built-in.o
LOAD test/built-in.o
LOAD test/dm/built-in.o
END GROUP
LOAD arch/arm/lib/eabi_compat.o
LOAD /home/rex/openrex-bsp/build-openrex/tmp/sysroots/imx6q-openrex/usr/lib/arm-poky-linux-gnueabi/5.2.0/libgcc.a
OUTPUT(u-boot elf32-littlearm)

.ARM.attributes
                0x0000000000000000       0x2d
 .ARM.attributes
                0x0000000000000000       0x1d arch/arm/cpu/armv7/start.o
 .ARM.attributes
                0x000000000000001d       0x2b arch/arm/cpu/armv7/built-in.o
 .ARM.attributes
                0x0000000000000048       0x2d arch/arm/imx-common/built-in.o
 .ARM.attributes
                0x0000000000000075       0x29 arch/arm/lib/built-in.o
 .ARM.attributes
                0x000000000000009e       0x2d board/fedevel/mx6openrex/built-in.o
 .ARM.attributes
                0x00000000000000cb       0x2d common/built-in.o
 .ARM.attributes
                0x00000000000000f8       0x2d disk/built-in.o
 .ARM.attributes
                0x0000000000000125       0x2d drivers/built-in.o
 .ARM.attributes
                0x0000000000000152       0x2d drivers/gpio/built-in.o
 .ARM.attributes
                0x000000000000017f       0x2d drivers/i2c/built-in.o
 .ARM.attributes
                0x00000000000001ac       0x2d drivers/mmc/built-in.o
 .ARM.attributes
                0x00000000000001d9       0x2d drivers/mtd/built-in.o
 .ARM.attributes
                0x0000000000000206       0x2d drivers/mtd/spi/built-in.o
 .ARM.attributes
                0x0000000000000233       0x2d drivers/net/built-in.o
 .ARM.attributes
                0x0000000000000260       0x2d drivers/net/phy/built-in.o
 .ARM.attributes
                0x000000000000028d       0x2d drivers/serial/built-in.o
 .ARM.attributes
                0x00000000000002ba       0x2d drivers/spi/built-in.o
 .ARM.attributes
                0x00000000000002e7       0x2d drivers/usb/eth/built-in.o
 .ARM.attributes
                0x0000000000000314       0x2d drivers/usb/gadget/built-in.o
 .ARM.attributes
                0x0000000000000341       0x2d drivers/usb/host/built-in.o
 .ARM.attributes
                0x000000000000036e       0x2d fs/built-in.o
 .ARM.attributes
                0x000000000000039b       0x2d lib/built-in.o
 .ARM.attributes
                0x00000000000003c8       0x2d net/built-in.o
 .ARM.attributes
                0x00000000000003f5       0x2d test/dm/built-in.o
 .ARM.attributes
                0x0000000000000422       0x2d arch/arm/lib/eabi_compat.o
 .ARM.attributes
                0x000000000000044f       0x23 /home/rex/openrex-bsp/build-openrex/tmp/sysroots/imx6q-openrex/usr/lib/arm-poky-linux-gnueabi/5.2.0/libgcc.a(_udivsi3.o)
 .ARM.attributes
                0x0000000000000472       0x23 /home/rex/openrex-bsp/build-openrex/tmp/sysroots/imx6q-openrex/usr/lib/arm-poky-linux-gnueabi/5.2.0/libgcc.a(_divsi3.o)
 .ARM.attributes
                0x0000000000000495       0x23 /home/rex/openrex-bsp/build-openrex/tmp/sysroots/imx6q-openrex/usr/lib/arm-poky-linux-gnueabi/5.2.0/libgcc.a(_lshrdi3.o)
 .ARM.attributes
                0x00000000000004b8       0x23 /home/rex/openrex-bsp/build-openrex/tmp/sysroots/imx6q-openrex/usr/lib/arm-poky-linux-gnueabi/5.2.0/libgcc.a(_ashldi3.o)
 .ARM.attributes
                0x00000000000004db       0x23 /home/rex/openrex-bsp/build-openrex/tmp/sysroots/imx6q-openrex/usr/lib/arm-poky-linux-gnueabi/5.2.0/libgcc.a(_dvmd_lnx.o)

.comment        0x0000000000000000       0x11
 .comment       0x0000000000000000       0x11 arch/arm/cpu/armv7/built-in.o
                                         0x7e (size before relaxing)
 .comment       0x0000000000000011       0xb4 arch/arm/imx-common/built-in.o
 .comment       0x0000000000000011       0xa2 arch/arm/lib/built-in.o
 .comment       0x0000000000000011       0x12 board/fedevel/mx6openrex/built-in.o
 .comment       0x0000000000000011      0x558 common/built-in.o
 .comment       0x0000000000000011       0x24 disk/built-in.o
 .comment       0x0000000000000011      0x168 drivers/built-in.o
 .comment       0x0000000000000011       0x12 drivers/gpio/built-in.o
 .comment       0x0000000000000011       0x24 drivers/i2c/built-in.o
 .comment       0x0000000000000011       0x36 drivers/mmc/built-in.o
 .comment       0x0000000000000011       0x24 drivers/mtd/built-in.o
 .comment       0x0000000000000011       0x48 drivers/mtd/spi/built-in.o
 .comment       0x0000000000000011       0x12 drivers/net/built-in.o
 .comment       0x0000000000000011       0x24 drivers/net/phy/built-in.o
 .comment       0x0000000000000011       0x24 drivers/serial/built-in.o
 .comment       0x0000000000000011       0x24 drivers/spi/built-in.o
 .comment       0x0000000000000011       0x24 drivers/usb/eth/built-in.o
 .comment       0x0000000000000011       0x90 drivers/usb/gadget/built-in.o
 .comment       0x0000000000000011       0x24 drivers/usb/host/built-in.o
 .comment       0x0000000000000011       0xa2 fs/built-in.o
 .comment       0x0000000000000011      0x276 lib/built-in.o
 .comment       0x0000000000000011       0x90 net/built-in.o
 .comment       0x0000000000000011       0x12 test/dm/built-in.o
 .comment       0x0000000000000011       0x12 arch/arm/lib/eabi_compat.o

.note.GNU-stack
                0x0000000000000000        0x0
 .note.GNU-stack
                0x0000000000000000        0x0 arch/arm/cpu/armv7/built-in.o
 .note.GNU-stack
                0x0000000000000000        0x0 arch/arm/imx-common/built-in.o
 .note.GNU-stack
                0x0000000000000000        0x0 arch/arm/lib/built-in.o
 .note.GNU-stack
                0x0000000000000000        0x0 board/fedevel/mx6openrex/built-in.o
 .note.GNU-stack
                0x0000000000000000        0x0 common/built-in.o
 .note.GNU-stack
                0x0000000000000000        0x0 disk/built-in.o
 .note.GNU-stack
                0x0000000000000000        0x0 drivers/built-in.o
 .note.GNU-stack
                0x0000000000000000        0x0 drivers/gpio/built-in.o
 .note.GNU-stack
                0x0000000000000000        0x0 drivers/i2c/built-in.o
 .note.GNU-stack
                0x0000000000000000        0x0 drivers/mmc/built-in.o
 .note.GNU-stack
                0x0000000000000000        0x0 drivers/mtd/built-in.o
 .note.GNU-stack
                0x0000000000000000        0x0 drivers/mtd/spi/built-in.o
 .note.GNU-stack
                0x0000000000000000        0x0 drivers/net/built-in.o
 .note.GNU-stack
                0x0000000000000000        0x0 drivers/net/phy/built-in.o
 .note.GNU-stack
                0x0000000000000000        0x0 drivers/serial/built-in.o
 .note.GNU-stack
                0x0000000000000000        0x0 drivers/spi/built-in.o
 .note.GNU-stack
                0x0000000000000000        0x0 drivers/usb/eth/built-in.o
 .note.GNU-stack
                0x0000000000000000        0x0 drivers/usb/gadget/built-in.o
 .note.GNU-stack
                0x0000000000000000        0x0 drivers/usb/host/built-in.o
 .note.GNU-stack
                0x0000000000000000        0x0 fs/built-in.o
 .note.GNU-stack
                0x0000000000000000        0x0 lib/built-in.o
 .note.GNU-stack
                0x0000000000000000        0x0 net/built-in.o
 .note.GNU-stack
                0x0000000000000000        0x0 test/dm/built-in.o
 .note.GNU-stack
                0x0000000000000000        0x0 arch/arm/lib/eabi_compat.o
 .note.GNU-stack
                0x0000000000000000        0x0 /home/rex/openrex-bsp/build-openrex/tmp/sysroots/imx6q-openrex/usr/lib/arm-poky-linux-gnueabi/5.2.0/libgcc.a(_udivsi3.o)
 .note.GNU-stack
                0x0000000000000000        0x0 /home/rex/openrex-bsp/build-openrex/tmp/sysroots/imx6q-openrex/usr/lib/arm-poky-linux-gnueabi/5.2.0/libgcc.a(_divsi3.o)
 .note.GNU-stack
                0x0000000000000000        0x0 /home/rex/openrex-bsp/build-openrex/tmp/sysroots/imx6q-openrex/usr/lib/arm-poky-linux-gnueabi/5.2.0/libgcc.a(_lshrdi3.o)
 .note.GNU-stack
                0x0000000000000000        0x0 /home/rex/openrex-bsp/build-openrex/tmp/sysroots/imx6q-openrex/usr/lib/arm-poky-linux-gnueabi/5.2.0/libgcc.a(_ashldi3.o)
 .note.GNU-stack
                0x0000000000000000        0x0 /home/rex/openrex-bsp/build-openrex/tmp/sysroots/imx6q-openrex/usr/lib/arm-poky-linux-gnueabi/5.2.0/libgcc.a(_dvmd_lnx.o)

.debug_line     0x0000000000000000    0x2350d
 .debug_line    0x0000000000000000       0x96 arch/arm/cpu/armv7/start.o
 .debug_line    0x0000000000000096      0xe97 arch/arm/cpu/armv7/built-in.o
 .debug_line    0x0000000000000f2d      0xf4c arch/arm/imx-common/built-in.o
 .debug_line    0x0000000000001e79      0xe69 arch/arm/lib/built-in.o
 .debug_line    0x0000000000002ce2      0x372 board/fedevel/mx6openrex/built-in.o
 .debug_line    0x0000000000003054     0xbe59 common/built-in.o
 .debug_line    0x000000000000eead      0x578 disk/built-in.o
 .debug_line    0x000000000000f425     0x2fe3 drivers/built-in.o
 .debug_line    0x0000000000012408      0x182 drivers/gpio/built-in.o
 .debug_line    0x000000000001258a      0x5f9 drivers/i2c/built-in.o
 .debug_line    0x0000000000012b83      0xe60 drivers/mmc/built-in.o
 .debug_line    0x00000000000139e3      0x6df drivers/mtd/built-in.o
 .debug_line    0x00000000000140c2      0x829 drivers/mtd/spi/built-in.o
 .debug_line    0x00000000000148eb      0x537 drivers/net/built-in.o
 .debug_line    0x0000000000014e22      0x813 drivers/net/phy/built-in.o
 .debug_line    0x0000000000015635      0x539 drivers/serial/built-in.o
 .debug_line    0x0000000000015b6e      0x41a drivers/spi/built-in.o
 .debug_line    0x0000000000015f88      0x57c drivers/usb/eth/built-in.o
 .debug_line    0x0000000000016504     0x2cd1 drivers/usb/gadget/built-in.o
 .debug_line    0x00000000000191d5      0x967 drivers/usb/host/built-in.o
 .debug_line    0x0000000000019b3c     0x2fb6 fs/built-in.o
 .debug_line    0x000000000001caf2     0x48a9 lib/built-in.o
 .debug_line    0x000000000002139b     0x1be0 net/built-in.o
 .debug_line    0x0000000000022f7b      0x122 test/dm/built-in.o
 .debug_line    0x000000000002309d      0x120 arch/arm/lib/eabi_compat.o
 .debug_line    0x00000000000231bd       0xb5 /home/rex/openrex-bsp/build-openrex/tmp/sysroots/imx6q-openrex/usr/lib/arm-poky-linux-gnueabi/5.2.0/libgcc.a(_udivsi3.o)
 .debug_line    0x0000000000023272       0xc1 /home/rex/openrex-bsp/build-openrex/tmp/sysroots/imx6q-openrex/usr/lib/arm-poky-linux-gnueabi/5.2.0/libgcc.a(_divsi3.o)
 .debug_line    0x0000000000023333       0x9f /home/rex/openrex-bsp/build-openrex/tmp/sysroots/imx6q-openrex/usr/lib/arm-poky-linux-gnueabi/5.2.0/libgcc.a(_lshrdi3.o)
 .debug_line    0x00000000000233d2       0x9f /home/rex/openrex-bsp/build-openrex/tmp/sysroots/imx6q-openrex/usr/lib/arm-poky-linux-gnueabi/5.2.0/libgcc.a(_ashldi3.o)
 .debug_line    0x0000000000023471       0x9c /home/rex/openrex-bsp/build-openrex/tmp/sysroots/imx6q-openrex/usr/lib/arm-poky-linux-gnueabi/5.2.0/libgcc.a(_dvmd_lnx.o)

.debug_info     0x0000000000000000    0xd9d7f
 .debug_info    0x0000000000000000       0xdc arch/arm/cpu/armv7/start.o
 .debug_info    0x00000000000000dc     0x62aa arch/arm/cpu/armv7/built-in.o
 .debug_info    0x0000000000006386     0x53a2 arch/arm/imx-common/built-in.o
 .debug_info    0x000000000000b728     0x51b3 arch/arm/lib/built-in.o
 .debug_info    0x00000000000108db     0x52b3 board/fedevel/mx6openrex/built-in.o
 .debug_info    0x0000000000015b8e    0x4b00f common/built-in.o
 .debug_info    0x0000000000060b9d     0x20ec disk/built-in.o
 .debug_info    0x0000000000062c89    0x150ea drivers/built-in.o
 .debug_info    0x0000000000077d73      0x707 drivers/gpio/built-in.o
 .debug_info    0x000000000007847a     0x30c3 drivers/i2c/built-in.o
 .debug_info    0x000000000007b53d     0x524b drivers/mmc/built-in.o
 .debug_info    0x0000000000080788     0x205b drivers/mtd/built-in.o
 .debug_info    0x00000000000827e3     0x33da drivers/mtd/spi/built-in.o
 .debug_info    0x0000000000085bbd     0x2f21 drivers/net/built-in.o
 .debug_info    0x0000000000088ade     0x34f2 drivers/net/phy/built-in.o
 .debug_info    0x000000000008bfd0     0x1c05 drivers/serial/built-in.o
 .debug_info    0x000000000008dbd5     0x1555 drivers/spi/built-in.o
 .debug_info    0x000000000008f12a     0x2af4 drivers/usb/eth/built-in.o
 .debug_info    0x0000000000091c1e    0x12c0e drivers/usb/gadget/built-in.o
 .debug_info    0x00000000000a482c     0x45a7 drivers/usb/host/built-in.o
 .debug_info    0x00000000000a8dd3    0x11ec0 fs/built-in.o
 .debug_info    0x00000000000bac93    0x1351d lib/built-in.o
 .debug_info    0x00000000000ce1b0     0xaaab net/built-in.o
 .debug_info    0x00000000000d8c5b      0x671 test/dm/built-in.o
 .debug_info    0x00000000000d92cc      0x491 arch/arm/lib/eabi_compat.o
 .debug_info    0x00000000000d975d      0x13a /home/rex/openrex-bsp/build-openrex/tmp/sysroots/imx6q-openrex/usr/lib/arm-poky-linux-gnueabi/5.2.0/libgcc.a(_udivsi3.o)
 .debug_info    0x00000000000d9897      0x13a /home/rex/openrex-bsp/build-openrex/tmp/sysroots/imx6q-openrex/usr/lib/arm-poky-linux-gnueabi/5.2.0/libgcc.a(_divsi3.o)
 .debug_info    0x00000000000d99d1      0x13a /home/rex/openrex-bsp/build-openrex/tmp/sysroots/imx6q-openrex/usr/lib/arm-poky-linux-gnueabi/5.2.0/libgcc.a(_lshrdi3.o)
 .debug_info    0x00000000000d9b0b      0x13a /home/rex/openrex-bsp/build-openrex/tmp/sysroots/imx6q-openrex/usr/lib/arm-poky-linux-gnueabi/5.2.0/libgcc.a(_ashldi3.o)
 .debug_info    0x00000000000d9c45      0x13a /home/rex/openrex-bsp/build-openrex/tmp/sysroots/imx6q-openrex/usr/lib/arm-poky-linux-gnueabi/5.2.0/libgcc.a(_dvmd_lnx.o)

.debug_abbrev   0x0000000000000000    0x24545
 .debug_abbrev  0x0000000000000000       0x14 arch/arm/cpu/armv7/start.o
 .debug_abbrev  0x0000000000000014     0x126f arch/arm/cpu/armv7/built-in.o
 .debug_abbrev  0x0000000000001283     0x1402 arch/arm/imx-common/built-in.o
 .debug_abbrev  0x0000000000002685     0x126e arch/arm/lib/built-in.o
 .debug_abbrev  0x00000000000038f3      0x481 board/fedevel/mx6openrex/built-in.o
 .debug_abbrev  0x0000000000003d74     0xcfc8 common/built-in.o
 .debug_abbrev  0x0000000000010d3c      0x6a1 disk/built-in.o
 .debug_abbrev  0x00000000000113dd     0x37b6 drivers/built-in.o
 .debug_abbrev  0x0000000000014b93      0x21a drivers/gpio/built-in.o
 .debug_abbrev  0x0000000000014dad      0x864 drivers/i2c/built-in.o
 .debug_abbrev  0x0000000000015611      0xd05 drivers/mmc/built-in.o
 .debug_abbrev  0x0000000000016316      0x5e5 drivers/mtd/built-in.o
 .debug_abbrev  0x00000000000168fb      0xa39 drivers/mtd/spi/built-in.o
 .debug_abbrev  0x0000000000017334      0x549 drivers/net/built-in.o
 .debug_abbrev  0x000000000001787d      0x7c6 drivers/net/phy/built-in.o
 .debug_abbrev  0x0000000000018043      0x61b drivers/serial/built-in.o
 .debug_abbrev  0x000000000001865e      0x5da drivers/spi/built-in.o
 .debug_abbrev  0x0000000000018c38      0x6f9 drivers/usb/eth/built-in.o
 .debug_abbrev  0x0000000000019331     0x2279 drivers/usb/gadget/built-in.o
 .debug_abbrev  0x000000000001b5aa      0x8e2 drivers/usb/host/built-in.o
 .debug_abbrev  0x000000000001be8c     0x1ee6 fs/built-in.o
 .debug_abbrev  0x000000000001dd72     0x4686 lib/built-in.o
 .debug_abbrev  0x00000000000223f8     0x1d6c net/built-in.o
 .debug_abbrev  0x0000000000024164      0x1e1 test/dm/built-in.o
 .debug_abbrev  0x0000000000024345      0x19c arch/arm/lib/eabi_compat.o
 .debug_abbrev  0x00000000000244e1       0x14 /home/rex/openrex-bsp/build-openrex/tmp/sysroots/imx6q-openrex/usr/lib/arm-poky-linux-gnueabi/5.2.0/libgcc.a(_udivsi3.o)
 .debug_abbrev  0x00000000000244f5       0x14 /home/rex/openrex-bsp/build-openrex/tmp/sysroots/imx6q-openrex/usr/lib/arm-poky-linux-gnueabi/5.2.0/libgcc.a(_divsi3.o)
 .debug_abbrev  0x0000000000024509       0x14 /home/rex/openrex-bsp/build-openrex/tmp/sysroots/imx6q-openrex/usr/lib/arm-poky-linux-gnueabi/5.2.0/libgcc.a(_lshrdi3.o)
 .debug_abbrev  0x000000000002451d       0x14 /home/rex/openrex-bsp/build-openrex/tmp/sysroots/imx6q-openrex/usr/lib/arm-poky-linux-gnueabi/5.2.0/libgcc.a(_ashldi3.o)
 .debug_abbrev  0x0000000000024531       0x14 /home/rex/openrex-bsp/build-openrex/tmp/sysroots/imx6q-openrex/usr/lib/arm-poky-linux-gnueabi/5.2.0/libgcc.a(_dvmd_lnx.o)

.debug_aranges  0x0000000000000000     0x4a20
 .debug_aranges
                0x0000000000000000       0x20 arch/arm/cpu/armv7/start.o
 .debug_aranges
                0x0000000000000020      0x270 arch/arm/cpu/armv7/built-in.o
 .debug_aranges
                0x0000000000000290      0x1f0 arch/arm/imx-common/built-in.o
 .debug_aranges
                0x0000000000000480      0x2a0 arch/arm/lib/built-in.o
 .debug_aranges
                0x0000000000000720       0x90 board/fedevel/mx6openrex/built-in.o
 .debug_aranges
                0x00000000000007b0     0x1878 common/built-in.o
 .debug_aranges
                0x0000000000002028       0xa0 disk/built-in.o
 .debug_aranges
                0x00000000000020c8      0x680 drivers/built-in.o
 .debug_aranges
                0x0000000000002748       0x48 drivers/gpio/built-in.o
 .debug_aranges
                0x0000000000002790      0x120 drivers/i2c/built-in.o
 .debug_aranges
                0x00000000000028b0      0x190 drivers/mmc/built-in.o
 .debug_aranges
                0x0000000000002a40      0x130 drivers/mtd/built-in.o
 .debug_aranges
                0x0000000000002b70      0x120 drivers/mtd/spi/built-in.o
 .debug_aranges
                0x0000000000002c90       0x80 drivers/net/built-in.o
 .debug_aranges
                0x0000000000002d10      0x120 drivers/net/phy/built-in.o
 .debug_aranges
                0x0000000000002e30      0x110 drivers/serial/built-in.o
 .debug_aranges
                0x0000000000002f40       0x98 drivers/spi/built-in.o
 .debug_aranges
                0x0000000000002fd8       0xc0 drivers/usb/eth/built-in.o
 .debug_aranges
                0x0000000000003098      0x4b8 drivers/usb/gadget/built-in.o
 .debug_aranges
                0x0000000000003550      0x128 drivers/usb/host/built-in.o
 .debug_aranges
                0x0000000000003678      0x488 fs/built-in.o
 .debug_aranges
                0x0000000000003b00      0xa60 lib/built-in.o
 .debug_aranges
                0x0000000000004560      0x3b0 net/built-in.o
 .debug_aranges
                0x0000000000004910       0x38 test/dm/built-in.o
 .debug_aranges
                0x0000000000004948       0x38 arch/arm/lib/eabi_compat.o
 .debug_aranges
                0x0000000000004980       0x20 /home/rex/openrex-bsp/build-openrex/tmp/sysroots/imx6q-openrex/usr/lib/arm-poky-linux-gnueabi/5.2.0/libgcc.a(_udivsi3.o)
 .debug_aranges
                0x00000000000049a0       0x20 /home/rex/openrex-bsp/build-openrex/tmp/sysroots/imx6q-openrex/usr/lib/arm-poky-linux-gnueabi/5.2.0/libgcc.a(_divsi3.o)
 .debug_aranges
                0x00000000000049c0       0x20 /home/rex/openrex-bsp/build-openrex/tmp/sysroots/imx6q-openrex/usr/lib/arm-poky-linux-gnueabi/5.2.0/libgcc.a(_lshrdi3.o)
 .debug_aranges
                0x00000000000049e0       0x20 /home/rex/openrex-bsp/build-openrex/tmp/sysroots/imx6q-openrex/usr/lib/arm-poky-linux-gnueabi/5.2.0/libgcc.a(_ashldi3.o)
 .debug_aranges
                0x0000000000004a00       0x20 /home/rex/openrex-bsp/build-openrex/tmp/sysroots/imx6q-openrex/usr/lib/arm-poky-linux-gnueabi/5.2.0/libgcc.a(_dvmd_lnx.o)

.debug_frame    0x0000000000000000     0xcd84
 .debug_frame   0x0000000000000000      0x588 arch/arm/cpu/armv7/built-in.o
 .debug_frame   0x0000000000000588      0x3e8 arch/arm/imx-common/built-in.o
 .debug_frame   0x0000000000000970      0x46c arch/arm/lib/built-in.o
 .debug_frame   0x0000000000000ddc      0x164 board/fedevel/mx6openrex/built-in.o
 .debug_frame   0x0000000000000f40     0x44ac common/built-in.o
 .debug_frame   0x00000000000053ec      0x218 disk/built-in.o
 .debug_frame   0x0000000000005604     0x11a0 drivers/built-in.o
 .debug_frame   0x00000000000067a4       0x78 drivers/gpio/built-in.o
 .debug_frame   0x000000000000681c      0x330 drivers/i2c/built-in.o
 .debug_frame   0x0000000000006b4c      0x56c drivers/mmc/built-in.o
 .debug_frame   0x00000000000070b8      0x44c drivers/mtd/built-in.o
 .debug_frame   0x0000000000007504      0x310 drivers/mtd/spi/built-in.o
 .debug_frame   0x0000000000007814      0x188 drivers/net/built-in.o
 .debug_frame   0x000000000000799c      0x368 drivers/net/phy/built-in.o
 .debug_frame   0x0000000000007d04      0x294 drivers/serial/built-in.o
 .debug_frame   0x0000000000007f98      0x178 drivers/spi/built-in.o
 .debug_frame   0x0000000000008110      0x258 drivers/usb/eth/built-in.o
 .debug_frame   0x0000000000008368      0xe28 drivers/usb/gadget/built-in.o
 .debug_frame   0x0000000000009190      0x364 drivers/usb/host/built-in.o
 .debug_frame   0x00000000000094f4      0xfb4 fs/built-in.o
 .debug_frame   0x000000000000a4a8     0x1c70 lib/built-in.o
 .debug_frame   0x000000000000c118      0xb48 net/built-in.o
 .debug_frame   0x000000000000cc60       0x7c test/dm/built-in.o
 .debug_frame   0x000000000000ccdc       0x68 arch/arm/lib/eabi_compat.o
 .debug_frame   0x000000000000cd44       0x20 /home/rex/openrex-bsp/build-openrex/tmp/sysroots/imx6q-openrex/usr/lib/arm-poky-linux-gnueabi/5.2.0/libgcc.a(_udivsi3.o)
 .debug_frame   0x000000000000cd64       0x20 /home/rex/openrex-bsp/build-openrex/tmp/sysroots/imx6q-openrex/usr/lib/arm-poky-linux-gnueabi/5.2.0/libgcc.a(_divsi3.o)

.debug_str      0x0000000000000000    0x1e17c
 .debug_str     0x0000000000000000     0x1ae3 arch/arm/cpu/armv7/built-in.o
                                       0x46ff (size before relaxing)
 .debug_str     0x0000000000001ae3      0xf7b arch/arm/imx-common/built-in.o
                                       0x485f (size before relaxing)
 .debug_str     0x0000000000002a5e     0x1271 arch/arm/lib/built-in.o
                                       0x45dd (size before relaxing)
 .debug_str     0x0000000000003ccf     0x805c board/fedevel/mx6openrex/built-in.o
                                       0x8e4a (size before relaxing)
 .debug_str     0x000000000000bd2b     0x67f0 common/built-in.o
                                      0x2d8c6 (size before relaxing)
 .debug_str     0x000000000001251b      0x26b disk/built-in.o
                                        0xfe8 (size before relaxing)
 .debug_str     0x0000000000012786     0x297f drivers/built-in.o
                                       0xdf27 (size before relaxing)
 .debug_str     0x0000000000015105       0x8a drivers/gpio/built-in.o
                                        0x554 (size before relaxing)
 .debug_str     0x000000000001518f      0x267 drivers/i2c/built-in.o
                                       0x16da (size before relaxing)
 .debug_str     0x00000000000153f6      0x55c drivers/mmc/built-in.o
                                       0x2126 (size before relaxing)
 .debug_str     0x0000000000015952      0x464 drivers/mtd/built-in.o
                                        0xfb6 (size before relaxing)
 .debug_str     0x0000000000015db6      0x4bf drivers/mtd/spi/built-in.o
                                       0x2125 (size before relaxing)
 .debug_str     0x0000000000016275      0x749 drivers/net/built-in.o
                                       0x1183 (size before relaxing)
 .debug_str     0x00000000000169be      0x316 drivers/net/phy/built-in.o
                                       0x1931 (size before relaxing)
 .debug_str     0x0000000000016cd4      0x1f5 drivers/serial/built-in.o
                                       0x14af (size before relaxing)
 .debug_str     0x0000000000016ec9      0x165 drivers/spi/built-in.o
                                        0xd0c (size before relaxing)
 .debug_str     0x000000000001702e      0x35b drivers/usb/eth/built-in.o
                                       0x15e2 (size before relaxing)
 .debug_str     0x0000000000017389     0x21b8 drivers/usb/gadget/built-in.o
                                       0x7b1a (size before relaxing)
 .debug_str     0x0000000000019541      0x595 drivers/usb/host/built-in.o
                                       0x2319 (size before relaxing)
 .debug_str     0x0000000000019ad6     0x1cb0 fs/built-in.o
                                       0x6b83 (size before relaxing)
 .debug_str     0x000000000001b786     0x16b9 lib/built-in.o
                                       0xb414 (size before relaxing)
 .debug_str     0x000000000001ce3f     0x1261 net/built-in.o
                                       0x6dae (size before relaxing)
 .debug_str     0x000000000001e0a0       0x7c test/dm/built-in.o
                                        0x596 (size before relaxing)
 .debug_str     0x000000000001e11c       0x60 arch/arm/lib/eabi_compat.o
                                        0x4d6 (size before relaxing)

.debug_loc      0x0000000000000000    0x80204
 .debug_loc     0x0000000000000000     0x1e7e arch/arm/cpu/armv7/built-in.o
 .debug_loc     0x0000000000001e7e      0xd24 arch/arm/imx-common/built-in.o
 .debug_loc     0x0000000000002ba2      0xae1 arch/arm/lib/built-in.o
 .debug_loc     0x0000000000003683      0x25b board/fedevel/mx6openrex/built-in.o
 .debug_loc     0x00000000000038de    0x20f33 common/built-in.o
 .debug_loc     0x0000000000024811      0xec4 disk/built-in.o
 .debug_loc     0x00000000000256d5     0x85e6 drivers/built-in.o
 .debug_loc     0x000000000002dcbb      0x523 drivers/gpio/built-in.o
 .debug_loc     0x000000000002e1de     0x125a drivers/i2c/built-in.o
 .debug_loc     0x000000000002f438     0x2954 drivers/mmc/built-in.o
 .debug_loc     0x0000000000031d8c     0x1a00 drivers/mtd/built-in.o
 .debug_loc     0x000000000003378c     0x15a0 drivers/mtd/spi/built-in.o
 .debug_loc     0x0000000000034d2c     0x1406 drivers/net/built-in.o
 .debug_loc     0x0000000000036132     0x25ae drivers/net/phy/built-in.o
 .debug_loc     0x00000000000386e0      0x563 drivers/serial/built-in.o
 .debug_loc     0x0000000000038c43      0xe72 drivers/spi/built-in.o
 .debug_loc     0x0000000000039ab5      0xc87 drivers/usb/eth/built-in.o
 .debug_loc     0x000000000003a73c     0xa435 drivers/usb/gadget/built-in.o
 .debug_loc     0x0000000000044b71     0x2075 drivers/usb/host/built-in.o
 .debug_loc     0x0000000000046be6    0x25030 fs/built-in.o
 .debug_loc     0x000000000006bc16     0xf76d lib/built-in.o
 .debug_loc     0x000000000007b383     0x4aef net/built-in.o
 .debug_loc     0x000000000007fe72      0x28a test/dm/built-in.o
 .debug_loc     0x00000000000800fc      0x108 arch/arm/lib/eabi_compat.o

.debug_ranges   0x0000000000000000     0x8c90
 .debug_ranges  0x0000000000000000      0x3a0 arch/arm/cpu/armv7/built-in.o
 .debug_ranges  0x00000000000003a0      0x278 arch/arm/imx-common/built-in.o
 .debug_ranges  0x0000000000000618      0x228 arch/arm/lib/built-in.o
 .debug_ranges  0x0000000000000840       0xb0 board/fedevel/mx6openrex/built-in.o
 .debug_ranges  0x00000000000008f0     0x25a0 common/built-in.o
 .debug_ranges  0x0000000000002e90       0xb8 disk/built-in.o
 .debug_ranges  0x0000000000002f48      0xcd8 drivers/built-in.o
 .debug_ranges  0x0000000000003c20       0x50 drivers/gpio/built-in.o
 .debug_ranges  0x0000000000003c70      0x280 drivers/i2c/built-in.o
 .debug_ranges  0x0000000000003ef0      0x3f8 drivers/mmc/built-in.o
 .debug_ranges  0x00000000000042e8      0x128 drivers/mtd/built-in.o
 .debug_ranges  0x0000000000004410      0x1a8 drivers/mtd/spi/built-in.o
 .debug_ranges  0x00000000000045b8      0x3d8 drivers/net/built-in.o
 .debug_ranges  0x0000000000004990      0x3b0 drivers/net/phy/built-in.o
 .debug_ranges  0x0000000000004d40      0x108 drivers/serial/built-in.o
 .debug_ranges  0x0000000000004e48      0x158 drivers/spi/built-in.o
 .debug_ranges  0x0000000000004fa0      0x1a8 drivers/usb/eth/built-in.o
 .debug_ranges  0x0000000000005148     0x1350 drivers/usb/gadget/built-in.o
 .debug_ranges  0x0000000000006498      0x298 drivers/usb/host/built-in.o
 .debug_ranges  0x0000000000006730      0xca8 fs/built-in.o
 .debug_ranges  0x00000000000073d8     0x1080 lib/built-in.o
 .debug_ranges  0x0000000000008458      0x7e8 net/built-in.o
 .debug_ranges  0x0000000000008c40       0x28 test/dm/built-in.o
 .debug_ranges  0x0000000000008c68       0x28 arch/arm/lib/eabi_compat.o
